ARM GAS  C:\Users\Jerry\AppData\Local\Temp\ccamILuW.s 			page 1


   1              		.cpu cortex-m0
   2              		.fpu softvfp
   3              		.eabi_attribute 20, 1
   4              		.eabi_attribute 21, 1
   5              		.eabi_attribute 23, 3
   6              		.eabi_attribute 24, 1
   7              		.eabi_attribute 25, 1
   8              		.eabi_attribute 26, 1
   9              		.eabi_attribute 30, 6
  10              		.eabi_attribute 34, 0
  11              		.eabi_attribute 18, 4
  12              		.code	16
  13              		.file	"BLE_1_hids.c"
  14              		.text
  15              	.Ltext0:
  16              		.cfi_sections	.debug_frame
  17              		.bss
  18              		.align	2
  19              	CyBle_HidsApplCallback:
  20 0000 00000000 		.space	4
  21              		.section	.rodata
  22              		.align	2
  23              		.type	cyBle_hids1ReportArray, %object
  24              		.size	cyBle_hids1ReportArray, 6
  25              	cyBle_hids1ReportArray:
  26 0000 1000     		.short	16
  27 0002 1100     		.short	17
  28 0004 1200     		.short	18
  29              		.global	cyBle_hidss
  30 0006 0000     		.align	2
  31              		.type	cyBle_hidss, %object
  32              		.size	cyBle_hidss, 40
  33              	cyBle_hidss:
  34 0008 0C00     		.short	12
  35 000a 0E00     		.short	14
  36 000c 01       		.byte	1
  37 000d 000000   		.space	3
  38 0010 00000000 		.word	cyBle_hids1ReportArray
  39 0014 1700     		.short	23
  40 0016 1800     		.short	24
  41 0018 0000     		.short	0
  42 001a 1A00     		.short	26
  43 001c 0000     		.short	0
  44 001e 0000     		.short	0
  45 0020 1C00     		.short	28
  46 0022 1D00     		.short	29
  47 0024 0000     		.short	0
  48 0026 1400     		.short	20
  49 0028 1500     		.short	21
  50 002a 1F00     		.short	31
  51 002c 2100     		.short	33
  52 002e 0000     		.space	2
  53              		.section	.text.CyBle_HidsInit,"ax",%progbits
  54              		.align	2
  55              		.global	CyBle_HidsInit
  56              		.code	16
  57              		.thumb_func
ARM GAS  C:\Users\Jerry\AppData\Local\Temp\ccamILuW.s 			page 2


  58              		.type	CyBle_HidsInit, %function
  59              	CyBle_HidsInit:
  60              	.LFB2:
  61              		.file 1 "Generated_Source\\PSoC4\\BLE_1_hids.c"
   1:Generated_Source\PSoC4/BLE_1_hids.c **** /***************************************************************************//**
   2:Generated_Source\PSoC4/BLE_1_hids.c **** * \file CYBLE_hids.c
   3:Generated_Source\PSoC4/BLE_1_hids.c **** * \version 3.20
   4:Generated_Source\PSoC4/BLE_1_hids.c **** * 
   5:Generated_Source\PSoC4/BLE_1_hids.c **** * \brief
   6:Generated_Source\PSoC4/BLE_1_hids.c **** *  Contains the source code for the HID service.
   7:Generated_Source\PSoC4/BLE_1_hids.c **** * 
   8:Generated_Source\PSoC4/BLE_1_hids.c **** ********************************************************************************
   9:Generated_Source\PSoC4/BLE_1_hids.c **** * \copyright
  10:Generated_Source\PSoC4/BLE_1_hids.c **** * Copyright 2014-2016, Cypress Semiconductor Corporation.  All rights reserved.
  11:Generated_Source\PSoC4/BLE_1_hids.c **** * You may use this file only in accordance with the license, terms, conditions,
  12:Generated_Source\PSoC4/BLE_1_hids.c **** * disclaimers, and limitations in the end user license agreement accompanying
  13:Generated_Source\PSoC4/BLE_1_hids.c **** * the software package with which this file was provided.
  14:Generated_Source\PSoC4/BLE_1_hids.c **** *******************************************************************************/
  15:Generated_Source\PSoC4/BLE_1_hids.c **** 
  16:Generated_Source\PSoC4/BLE_1_hids.c **** #include "BLE_1_eventHandler.h"
  17:Generated_Source\PSoC4/BLE_1_hids.c **** 
  18:Generated_Source\PSoC4/BLE_1_hids.c **** static CYBLE_CALLBACK_T CyBle_HidsApplCallback;
  19:Generated_Source\PSoC4/BLE_1_hids.c **** 
  20:Generated_Source\PSoC4/BLE_1_hids.c **** #ifdef CYBLE_HIDS_SERVER
  21:Generated_Source\PSoC4/BLE_1_hids.c **** 
  22:Generated_Source\PSoC4/BLE_1_hids.c **** static const CYBLE_HIDSS_REPORT_T cyBle_hids1ReportArray[0x01u] = {
  23:Generated_Source\PSoC4/BLE_1_hids.c ****     {
  24:Generated_Source\PSoC4/BLE_1_hids.c ****         0x0010u, /* Handle of the Report characteristic value */ 
  25:Generated_Source\PSoC4/BLE_1_hids.c ****         0x0011u, /* Handle of the Client Characteristic Configuration descriptor */ 
  26:Generated_Source\PSoC4/BLE_1_hids.c ****         0x0012u, /* Handle of the Report Reference descriptor */ 
  27:Generated_Source\PSoC4/BLE_1_hids.c ****     },
  28:Generated_Source\PSoC4/BLE_1_hids.c **** };
  29:Generated_Source\PSoC4/BLE_1_hids.c **** 
  30:Generated_Source\PSoC4/BLE_1_hids.c **** const CYBLE_HIDSS_T cyBle_hidss[0x01u] = {
  31:Generated_Source\PSoC4/BLE_1_hids.c ****     {
  32:Generated_Source\PSoC4/BLE_1_hids.c ****         0x000Cu, /* Handle of the HID service */ 
  33:Generated_Source\PSoC4/BLE_1_hids.c ****         0x000Eu, /* Handle of the Protocol Mode characteristic */ 
  34:Generated_Source\PSoC4/BLE_1_hids.c ****         0x01u, /* Number of report characteristics */ 
  35:Generated_Source\PSoC4/BLE_1_hids.c ****         cyBle_hids1ReportArray, /* Information about report characteristics */ 
  36:Generated_Source\PSoC4/BLE_1_hids.c ****         {
  37:Generated_Source\PSoC4/BLE_1_hids.c ****             {
  38:Generated_Source\PSoC4/BLE_1_hids.c ****                 0x0017u, /* Handle of the Report characteristic value */ 
  39:Generated_Source\PSoC4/BLE_1_hids.c ****                 0x0018u, /* Handle of the Client Characteristic Configuration descriptor */ 
  40:Generated_Source\PSoC4/BLE_1_hids.c ****                 CYBLE_GATT_INVALID_ATTR_HANDLE_VALUE, /* Handle of the Report Reference descriptor 
  41:Generated_Source\PSoC4/BLE_1_hids.c ****             },
  42:Generated_Source\PSoC4/BLE_1_hids.c ****             {
  43:Generated_Source\PSoC4/BLE_1_hids.c ****                 0x001Au, /* Handle of the Report characteristic value */ 
  44:Generated_Source\PSoC4/BLE_1_hids.c ****                 CYBLE_GATT_INVALID_ATTR_HANDLE_VALUE, /* Handle of the Client Characteristic Config
  45:Generated_Source\PSoC4/BLE_1_hids.c ****                 CYBLE_GATT_INVALID_ATTR_HANDLE_VALUE, /* Handle of the Report Reference descriptor 
  46:Generated_Source\PSoC4/BLE_1_hids.c ****             },
  47:Generated_Source\PSoC4/BLE_1_hids.c ****             {
  48:Generated_Source\PSoC4/BLE_1_hids.c ****                 0x001Cu, /* Handle of the Report characteristic value */ 
  49:Generated_Source\PSoC4/BLE_1_hids.c ****                 0x001Du, /* Handle of the Client Characteristic Configuration descriptor */ 
  50:Generated_Source\PSoC4/BLE_1_hids.c ****                 CYBLE_GATT_INVALID_ATTR_HANDLE_VALUE, /* Handle of the Report Reference descriptor 
  51:Generated_Source\PSoC4/BLE_1_hids.c ****             },
  52:Generated_Source\PSoC4/BLE_1_hids.c ****         }, /* Information about boot report characteristics */ 
  53:Generated_Source\PSoC4/BLE_1_hids.c ****         0x0014u, /* Handle of the Report Map characteristic */ 
ARM GAS  C:\Users\Jerry\AppData\Local\Temp\ccamILuW.s 			page 3


  54:Generated_Source\PSoC4/BLE_1_hids.c ****         0x0015u, /* Handle of the Report Map External Report Reference descriptor */ 
  55:Generated_Source\PSoC4/BLE_1_hids.c ****         0x001Fu, /* Handle of the HID Information characteristic */ 
  56:Generated_Source\PSoC4/BLE_1_hids.c ****         0x0021u, /* Handle of the HID Control Point characteristic */ 
  57:Generated_Source\PSoC4/BLE_1_hids.c ****     },
  58:Generated_Source\PSoC4/BLE_1_hids.c **** };
  59:Generated_Source\PSoC4/BLE_1_hids.c **** 
  60:Generated_Source\PSoC4/BLE_1_hids.c **** /* Local function prototypes */
  61:Generated_Source\PSoC4/BLE_1_hids.c **** static uint32 CyBle_HidssCccdWriteEventHandler(uint8 serviceIndex, const CYBLE_GATTS_WRITE_REQ_PARA
  62:Generated_Source\PSoC4/BLE_1_hids.c **** 
  63:Generated_Source\PSoC4/BLE_1_hids.c **** #endif /* CYBLE_HIDS_SERVER */
  64:Generated_Source\PSoC4/BLE_1_hids.c **** 
  65:Generated_Source\PSoC4/BLE_1_hids.c **** #ifdef CYBLE_HIDS_CLIENT
  66:Generated_Source\PSoC4/BLE_1_hids.c **** 
  67:Generated_Source\PSoC4/BLE_1_hids.c ****     CYBLE_HIDSC_T cyBle_hidsc[CYBLE_HIDSC_SERVICE_COUNT];
  68:Generated_Source\PSoC4/BLE_1_hids.c ****     static CYBLE_GATT_DB_ATTR_HANDLE_T cyBle_hidscReqHandle;
  69:Generated_Source\PSoC4/BLE_1_hids.c ****     uint8 cyBle_hidscServiceCount;
  70:Generated_Source\PSoC4/BLE_1_hids.c **** 
  71:Generated_Source\PSoC4/BLE_1_hids.c **** #endif /* CYBLE_HIDS_CLIENT */
  72:Generated_Source\PSoC4/BLE_1_hids.c **** 
  73:Generated_Source\PSoC4/BLE_1_hids.c **** 
  74:Generated_Source\PSoC4/BLE_1_hids.c **** /****************************************************************************** 
  75:Generated_Source\PSoC4/BLE_1_hids.c **** * Function Name: CyBle_HidsInit
  76:Generated_Source\PSoC4/BLE_1_hids.c **** ***************************************************************************//**
  77:Generated_Source\PSoC4/BLE_1_hids.c **** * 
  78:Generated_Source\PSoC4/BLE_1_hids.c **** *  This function initializes the HID Service.
  79:Generated_Source\PSoC4/BLE_1_hids.c **** * 
  80:Generated_Source\PSoC4/BLE_1_hids.c **** * 
  81:Generated_Source\PSoC4/BLE_1_hids.c **** ******************************************************************************/
  82:Generated_Source\PSoC4/BLE_1_hids.c **** void CyBle_HidsInit(void)
  83:Generated_Source\PSoC4/BLE_1_hids.c **** {
  62              		.loc 1 83 0
  63              		.cfi_startproc
  64 0000 80B5     		push	{r7, lr}
  65              		.cfi_def_cfa_offset 8
  66              		.cfi_offset 7, -8
  67              		.cfi_offset 14, -4
  68 0002 00AF     		add	r7, sp, #0
  69              		.cfi_def_cfa_register 7
  84:Generated_Source\PSoC4/BLE_1_hids.c **** 
  85:Generated_Source\PSoC4/BLE_1_hids.c **** #ifdef CYBLE_HIDS_CLIENT
  86:Generated_Source\PSoC4/BLE_1_hids.c **** 
  87:Generated_Source\PSoC4/BLE_1_hids.c ****     uint8 locServIndex;
  88:Generated_Source\PSoC4/BLE_1_hids.c ****     for(locServIndex = 0u; locServIndex < CYBLE_HIDSC_SERVICE_COUNT; locServIndex++)
  89:Generated_Source\PSoC4/BLE_1_hids.c ****     {
  90:Generated_Source\PSoC4/BLE_1_hids.c ****         if(cyBle_serverInfo[CYBLE_SRVI_HIDS + locServIndex].range.startHandle == CYBLE_GATT_INVALID
  91:Generated_Source\PSoC4/BLE_1_hids.c ****         {
  92:Generated_Source\PSoC4/BLE_1_hids.c ****             (void)memset(&cyBle_hidsc[locServIndex], 0, sizeof(cyBle_hidsc[locServIndex]));
  93:Generated_Source\PSoC4/BLE_1_hids.c ****         }
  94:Generated_Source\PSoC4/BLE_1_hids.c ****     }
  95:Generated_Source\PSoC4/BLE_1_hids.c ****     cyBle_hidscReqHandle = CYBLE_GATT_INVALID_ATTR_HANDLE_VALUE;
  96:Generated_Source\PSoC4/BLE_1_hids.c ****     cyBle_hidscServiceCount = 0u;
  97:Generated_Source\PSoC4/BLE_1_hids.c **** 
  98:Generated_Source\PSoC4/BLE_1_hids.c **** #endif /* CYBLE_HIDS_CLIENT */
  99:Generated_Source\PSoC4/BLE_1_hids.c **** }
  70              		.loc 1 99 0
  71 0004 BD46     		mov	sp, r7
  72              		@ sp needed
ARM GAS  C:\Users\Jerry\AppData\Local\Temp\ccamILuW.s 			page 4


  73 0006 80BD     		pop	{r7, pc}
  74              		.cfi_endproc
  75              	.LFE2:
  76              		.size	CyBle_HidsInit, .-CyBle_HidsInit
  77              		.section	.text.CyBle_HidsRegisterAttrCallback,"ax",%progbits
  78              		.align	2
  79              		.global	CyBle_HidsRegisterAttrCallback
  80              		.code	16
  81              		.thumb_func
  82              		.type	CyBle_HidsRegisterAttrCallback, %function
  83              	CyBle_HidsRegisterAttrCallback:
  84              	.LFB3:
 100:Generated_Source\PSoC4/BLE_1_hids.c **** 
 101:Generated_Source\PSoC4/BLE_1_hids.c **** 
 102:Generated_Source\PSoC4/BLE_1_hids.c **** /****************************************************************************** 
 103:Generated_Source\PSoC4/BLE_1_hids.c **** * Function Name: CyBle_HidsRegisterAttrCallback
 104:Generated_Source\PSoC4/BLE_1_hids.c **** ***************************************************************************//**
 105:Generated_Source\PSoC4/BLE_1_hids.c **** * 
 106:Generated_Source\PSoC4/BLE_1_hids.c **** *  Registers a callback function for service specific attribute operations.
 107:Generated_Source\PSoC4/BLE_1_hids.c **** *  Service specific write requests from peer device will not be handled with
 108:Generated_Source\PSoC4/BLE_1_hids.c **** *  unregistered callback function.
 109:Generated_Source\PSoC4/BLE_1_hids.c **** * 
 110:Generated_Source\PSoC4/BLE_1_hids.c **** *  \param callbackFunc: An application layer event callback function to receive 
 111:Generated_Source\PSoC4/BLE_1_hids.c **** *                    events from the BLE Component. The definition of 
 112:Generated_Source\PSoC4/BLE_1_hids.c **** *                    CYBLE_CALLBACK_T for HID Service is:\n
 113:Generated_Source\PSoC4/BLE_1_hids.c **** *                    typedef void (* CYBLE_CALLBACK_T) (uint32 eventCode, 
 114:Generated_Source\PSoC4/BLE_1_hids.c **** *                                                       void *eventParam)
 115:Generated_Source\PSoC4/BLE_1_hids.c **** *                    * eventCode indicates the event that triggered this 
 116:Generated_Source\PSoC4/BLE_1_hids.c **** *                      callback (e.g. CYBLE_EVT_HIDS_NOTIFICATION_ENABLED).
 117:Generated_Source\PSoC4/BLE_1_hids.c **** *                    * eventParam contains the parameters corresponding to the 
 118:Generated_Source\PSoC4/BLE_1_hids.c **** *                      current event. (e.g. pointer to CYBLE_HIDS_CHAR_VALUE_T
 119:Generated_Source\PSoC4/BLE_1_hids.c **** *                      structure that contains details of the characteristic for 
 120:Generated_Source\PSoC4/BLE_1_hids.c **** *                      which notification enabled event was triggered).
 121:Generated_Source\PSoC4/BLE_1_hids.c **** *
 122:Generated_Source\PSoC4/BLE_1_hids.c **** *
 123:Generated_Source\PSoC4/BLE_1_hids.c **** * \sideeffect The *eventParams in the callback function should not be used by 
 124:Generated_Source\PSoC4/BLE_1_hids.c **** *                the application once the callback function execution is finished.
 125:Generated_Source\PSoC4/BLE_1_hids.c **** *                Otherwise this data may become corrupted.
 126:Generated_Source\PSoC4/BLE_1_hids.c **** * 
 127:Generated_Source\PSoC4/BLE_1_hids.c **** ******************************************************************************/
 128:Generated_Source\PSoC4/BLE_1_hids.c **** void CyBle_HidsRegisterAttrCallback(CYBLE_CALLBACK_T callbackFunc)
 129:Generated_Source\PSoC4/BLE_1_hids.c **** {
  85              		.loc 1 129 0
  86              		.cfi_startproc
  87 0000 80B5     		push	{r7, lr}
  88              		.cfi_def_cfa_offset 8
  89              		.cfi_offset 7, -8
  90              		.cfi_offset 14, -4
  91 0002 82B0     		sub	sp, sp, #8
  92              		.cfi_def_cfa_offset 16
  93 0004 00AF     		add	r7, sp, #0
  94              		.cfi_def_cfa_register 7
  95 0006 7860     		str	r0, [r7, #4]
 130:Generated_Source\PSoC4/BLE_1_hids.c ****     CyBle_HidsApplCallback = callbackFunc;
  96              		.loc 1 130 0
  97 0008 024B     		ldr	r3, .L3
  98 000a 7A68     		ldr	r2, [r7, #4]
ARM GAS  C:\Users\Jerry\AppData\Local\Temp\ccamILuW.s 			page 5


  99 000c 1A60     		str	r2, [r3]
 131:Generated_Source\PSoC4/BLE_1_hids.c **** }
 100              		.loc 1 131 0
 101 000e BD46     		mov	sp, r7
 102 0010 02B0     		add	sp, sp, #8
 103              		@ sp needed
 104 0012 80BD     		pop	{r7, pc}
 105              	.L4:
 106              		.align	2
 107              	.L3:
 108 0014 00000000 		.word	CyBle_HidsApplCallback
 109              		.cfi_endproc
 110              	.LFE3:
 111              		.size	CyBle_HidsRegisterAttrCallback, .-CyBle_HidsRegisterAttrCallback
 112              		.section	.text.CyBle_HidssSetCharacteristicValue,"ax",%progbits
 113              		.align	2
 114              		.global	CyBle_HidssSetCharacteristicValue
 115              		.code	16
 116              		.thumb_func
 117              		.type	CyBle_HidssSetCharacteristicValue, %function
 118              	CyBle_HidssSetCharacteristicValue:
 119              	.LFB4:
 132:Generated_Source\PSoC4/BLE_1_hids.c **** 
 133:Generated_Source\PSoC4/BLE_1_hids.c **** #ifdef CYBLE_HIDS_SERVER
 134:Generated_Source\PSoC4/BLE_1_hids.c **** 
 135:Generated_Source\PSoC4/BLE_1_hids.c **** 
 136:Generated_Source\PSoC4/BLE_1_hids.c **** /****************************************************************************** 
 137:Generated_Source\PSoC4/BLE_1_hids.c **** * Function Name: CyBle_HidssSetCharacteristicValue
 138:Generated_Source\PSoC4/BLE_1_hids.c **** ***************************************************************************//**
 139:Generated_Source\PSoC4/BLE_1_hids.c **** * 
 140:Generated_Source\PSoC4/BLE_1_hids.c **** *  Sets local characteristic value of the specified HID Service characteristics.
 141:Generated_Source\PSoC4/BLE_1_hids.c **** * 
 142:Generated_Source\PSoC4/BLE_1_hids.c **** *  \param serviceIndex: The index of the service instance. e.g. If two HID Services are 
 143:Generated_Source\PSoC4/BLE_1_hids.c **** *                 supported in your design, then first service will be identified
 144:Generated_Source\PSoC4/BLE_1_hids.c **** *                 by serviceIndex of 0 and the second by serviceIndex of 1.
 145:Generated_Source\PSoC4/BLE_1_hids.c **** *  \param charIndex: The index of a service characteristic.
 146:Generated_Source\PSoC4/BLE_1_hids.c **** *              * CYBLE_HIDS_PROTOCOL_MODE - Protocol Mode characteristic
 147:Generated_Source\PSoC4/BLE_1_hids.c **** *              * CYBLE_HIDS_REPORT_MAP - Report Map characteristic
 148:Generated_Source\PSoC4/BLE_1_hids.c **** *              * CYBLE_HIDS_INFORMATION - HID Information characteristic
 149:Generated_Source\PSoC4/BLE_1_hids.c **** *              * CYBLE_HIDS_CONTROL_POINT - HID Control Point characteristic
 150:Generated_Source\PSoC4/BLE_1_hids.c **** *              * CYBLE_HIDS_BOOT_KYBRD_IN_REP - Boot Keyboard Input Report Characteristic
 151:Generated_Source\PSoC4/BLE_1_hids.c **** *              * CYBLE_HIDS_BOOT_KYBRD_OUT_REP - Boot Keyboard Output Report Characteristic
 152:Generated_Source\PSoC4/BLE_1_hids.c **** *              * CYBLE_HIDS_BOOT_MOUSE_IN_REP - Boot Mouse Input Report Characteristic
 153:Generated_Source\PSoC4/BLE_1_hids.c **** *              * CYBLE_HIDS_REPORT - Report Characteristic
 154:Generated_Source\PSoC4/BLE_1_hids.c **** * 
 155:Generated_Source\PSoC4/BLE_1_hids.c **** *  \param attrSize: The size of the characteristic value attribute.
 156:Generated_Source\PSoC4/BLE_1_hids.c **** * 
 157:Generated_Source\PSoC4/BLE_1_hids.c **** *  \param attrValue: The pointer to the characteristic value data that should be 
 158:Generated_Source\PSoC4/BLE_1_hids.c **** *               stored in the GATT database.
 159:Generated_Source\PSoC4/BLE_1_hids.c **** * 
 160:Generated_Source\PSoC4/BLE_1_hids.c **** * \return
 161:Generated_Source\PSoC4/BLE_1_hids.c **** *  Return value is of type CYBLE_API_RESULT_T.
 162:Generated_Source\PSoC4/BLE_1_hids.c **** *  * CYBLE_ERROR_OK - The request handled successfully.
 163:Generated_Source\PSoC4/BLE_1_hids.c **** *  * CYBLE_ERROR_INVALID_PARAMETER - Validation of the input parameter failed.
 164:Generated_Source\PSoC4/BLE_1_hids.c **** *  * CYBLE_ERROR_GATT_DB_INVALID_ATTR_HANDLE - Optional characteristic is absent
 165:Generated_Source\PSoC4/BLE_1_hids.c **** *
 166:Generated_Source\PSoC4/BLE_1_hids.c **** *
ARM GAS  C:\Users\Jerry\AppData\Local\Temp\ccamILuW.s 			page 6


 167:Generated_Source\PSoC4/BLE_1_hids.c **** ******************************************************************************/
 168:Generated_Source\PSoC4/BLE_1_hids.c **** CYBLE_API_RESULT_T CyBle_HidssSetCharacteristicValue(uint8 serviceIndex, CYBLE_HIDS_CHAR_INDEX_T ch
 169:Generated_Source\PSoC4/BLE_1_hids.c ****     uint8 attrSize, uint8 *attrValue)
 170:Generated_Source\PSoC4/BLE_1_hids.c **** {
 120              		.loc 1 170 0
 121              		.cfi_startproc
 122 0000 90B5     		push	{r4, r7, lr}
 123              		.cfi_def_cfa_offset 12
 124              		.cfi_offset 4, -12
 125              		.cfi_offset 7, -8
 126              		.cfi_offset 14, -4
 127 0002 87B0     		sub	sp, sp, #28
 128              		.cfi_def_cfa_offset 40
 129 0004 00AF     		add	r7, sp, #0
 130              		.cfi_def_cfa_register 7
 131 0006 041C     		mov	r4, r0
 132 0008 081C     		mov	r0, r1
 133 000a 111C     		mov	r1, r2
 134 000c 3B60     		str	r3, [r7]
 135 000e FB1D     		add	r3, r7, #7
 136 0010 221C     		add	r2, r4, #0
 137 0012 1A70     		strb	r2, [r3]
 138 0014 BB1D     		add	r3, r7, #6
 139 0016 021C     		add	r2, r0, #0
 140 0018 1A70     		strb	r2, [r3]
 141 001a 7B1D     		add	r3, r7, #5
 142 001c 0A1C     		add	r2, r1, #0
 143 001e 1A70     		strb	r2, [r3]
 171:Generated_Source\PSoC4/BLE_1_hids.c ****     CYBLE_API_RESULT_T apiResult = CYBLE_ERROR_OK;
 144              		.loc 1 171 0
 145 0020 1623     		mov	r3, #22
 146 0022 FB18     		add	r3, r7, r3
 147 0024 0022     		mov	r2, #0
 148 0026 1A80     		strh	r2, [r3]
 172:Generated_Source\PSoC4/BLE_1_hids.c ****     CYBLE_GATT_DB_ATTR_HANDLE_T charValueHandle;
 173:Generated_Source\PSoC4/BLE_1_hids.c ****     CYBLE_GATT_HANDLE_VALUE_PAIR_T locHandleValuePair;
 174:Generated_Source\PSoC4/BLE_1_hids.c **** 
 175:Generated_Source\PSoC4/BLE_1_hids.c ****     if((serviceIndex >= CYBLE_HIDSS_SERVICE_COUNT) || (charIndex >= CYBLE_HIDS_CHAR_COUNT))
 149              		.loc 1 175 0
 150 0028 FB1D     		add	r3, r7, #7
 151 002a 1B78     		ldrb	r3, [r3]
 152 002c 002B     		cmp	r3, #0
 153 002e 03D1     		bne	.L6
 154              		.loc 1 175 0 is_stmt 0 discriminator 1
 155 0030 BB1D     		add	r3, r7, #6
 156 0032 1B78     		ldrb	r3, [r3]
 157 0034 072B     		cmp	r3, #7
 158 0036 04D9     		bls	.L7
 159              	.L6:
 176:Generated_Source\PSoC4/BLE_1_hids.c ****     {
 177:Generated_Source\PSoC4/BLE_1_hids.c ****         apiResult = CYBLE_ERROR_INVALID_PARAMETER;
 160              		.loc 1 177 0 is_stmt 1
 161 0038 1623     		mov	r3, #22
 162 003a FB18     		add	r3, r7, r3
 163 003c 0122     		mov	r2, #1
 164 003e 1A80     		strh	r2, [r3]
 165 0040 BBE0     		b	.L8
ARM GAS  C:\Users\Jerry\AppData\Local\Temp\ccamILuW.s 			page 7


 166              	.L7:
 178:Generated_Source\PSoC4/BLE_1_hids.c ****     }
 179:Generated_Source\PSoC4/BLE_1_hids.c ****     else
 180:Generated_Source\PSoC4/BLE_1_hids.c ****     {
 181:Generated_Source\PSoC4/BLE_1_hids.c ****         switch(charIndex)
 167              		.loc 1 181 0
 168 0042 BB1D     		add	r3, r7, #6
 169 0044 1B78     		ldrb	r3, [r3]
 170 0046 062B     		cmp	r3, #6
 171 0048 65D8     		bhi	.L9
 172 004a 9A00     		lsl	r2, r3, #2
 173 004c 5E4B     		ldr	r3, .L24
 174 004e D318     		add	r3, r2, r3
 175 0050 1B68     		ldr	r3, [r3]
 176 0052 9F46     		mov	pc, r3
 177              		.section	.rodata
 178              		.align	2
 179              	.L11:
 180 0030 54000000 		.word	.L10
 181 0034 8A000000 		.word	.L12
 182 0038 A6000000 		.word	.L13
 183 003c 6E000000 		.word	.L14
 184 0040 C2000000 		.word	.L15
 185 0044 DE000000 		.word	.L16
 186 0048 FA000000 		.word	.L17
 187              		.section	.text.CyBle_HidssSetCharacteristicValue
 188              	.L10:
 182:Generated_Source\PSoC4/BLE_1_hids.c ****         {
 183:Generated_Source\PSoC4/BLE_1_hids.c ****             case CYBLE_HIDS_PROTOCOL_MODE:
 184:Generated_Source\PSoC4/BLE_1_hids.c ****                 charValueHandle = cyBle_hidss[serviceIndex].protocolModeHandle;
 189              		.loc 1 184 0
 190 0054 FB1D     		add	r3, r7, #7
 191 0056 1A78     		ldrb	r2, [r3]
 192 0058 1423     		mov	r3, #20
 193 005a F918     		add	r1, r7, r3
 194 005c 5B48     		ldr	r0, .L24+4
 195 005e 131C     		mov	r3, r2
 196 0060 9B00     		lsl	r3, r3, #2
 197 0062 9B18     		add	r3, r3, r2
 198 0064 DB00     		lsl	r3, r3, #3
 199 0066 C318     		add	r3, r0, r3
 200 0068 5B88     		ldrh	r3, [r3, #2]
 201 006a 0B80     		strh	r3, [r1]
 185:Generated_Source\PSoC4/BLE_1_hids.c ****                 break;
 202              		.loc 1 185 0
 203 006c 7DE0     		b	.L18
 204              	.L14:
 186:Generated_Source\PSoC4/BLE_1_hids.c ****             case CYBLE_HIDS_REPORT_MAP:
 187:Generated_Source\PSoC4/BLE_1_hids.c ****                 charValueHandle = cyBle_hidss[serviceIndex].reportMapHandle;
 205              		.loc 1 187 0
 206 006e FB1D     		add	r3, r7, #7
 207 0070 1A78     		ldrb	r2, [r3]
 208 0072 1423     		mov	r3, #20
 209 0074 F918     		add	r1, r7, r3
 210 0076 5548     		ldr	r0, .L24+4
 211 0078 131C     		mov	r3, r2
 212 007a 9B00     		lsl	r3, r3, #2
ARM GAS  C:\Users\Jerry\AppData\Local\Temp\ccamILuW.s 			page 8


 213 007c 9B18     		add	r3, r3, r2
 214 007e DB00     		lsl	r3, r3, #3
 215 0080 C318     		add	r3, r0, r3
 216 0082 1833     		add	r3, r3, #24
 217 0084 DB88     		ldrh	r3, [r3, #6]
 218 0086 0B80     		strh	r3, [r1]
 188:Generated_Source\PSoC4/BLE_1_hids.c ****                 break;
 219              		.loc 1 188 0
 220 0088 6FE0     		b	.L18
 221              	.L12:
 189:Generated_Source\PSoC4/BLE_1_hids.c ****             case CYBLE_HIDS_INFORMATION:
 190:Generated_Source\PSoC4/BLE_1_hids.c ****                 charValueHandle = cyBle_hidss[serviceIndex].informationHandle;
 222              		.loc 1 190 0
 223 008a FB1D     		add	r3, r7, #7
 224 008c 1A78     		ldrb	r2, [r3]
 225 008e 1423     		mov	r3, #20
 226 0090 F918     		add	r1, r7, r3
 227 0092 4E48     		ldr	r0, .L24+4
 228 0094 131C     		mov	r3, r2
 229 0096 9B00     		lsl	r3, r3, #2
 230 0098 9B18     		add	r3, r3, r2
 231 009a DB00     		lsl	r3, r3, #3
 232 009c C318     		add	r3, r0, r3
 233 009e 2033     		add	r3, r3, #32
 234 00a0 5B88     		ldrh	r3, [r3, #2]
 235 00a2 0B80     		strh	r3, [r1]
 191:Generated_Source\PSoC4/BLE_1_hids.c ****                 break;
 236              		.loc 1 191 0
 237 00a4 61E0     		b	.L18
 238              	.L13:
 192:Generated_Source\PSoC4/BLE_1_hids.c ****             case CYBLE_HIDS_CONTROL_POINT:
 193:Generated_Source\PSoC4/BLE_1_hids.c ****                 charValueHandle = cyBle_hidss[serviceIndex].controlPointHandle;
 239              		.loc 1 193 0
 240 00a6 FB1D     		add	r3, r7, #7
 241 00a8 1A78     		ldrb	r2, [r3]
 242 00aa 1423     		mov	r3, #20
 243 00ac F918     		add	r1, r7, r3
 244 00ae 4748     		ldr	r0, .L24+4
 245 00b0 131C     		mov	r3, r2
 246 00b2 9B00     		lsl	r3, r3, #2
 247 00b4 9B18     		add	r3, r3, r2
 248 00b6 DB00     		lsl	r3, r3, #3
 249 00b8 C318     		add	r3, r0, r3
 250 00ba 2033     		add	r3, r3, #32
 251 00bc 9B88     		ldrh	r3, [r3, #4]
 252 00be 0B80     		strh	r3, [r1]
 194:Generated_Source\PSoC4/BLE_1_hids.c ****                 break;
 253              		.loc 1 194 0
 254 00c0 53E0     		b	.L18
 255              	.L15:
 195:Generated_Source\PSoC4/BLE_1_hids.c ****             case CYBLE_HIDS_BOOT_KYBRD_IN_REP:
 196:Generated_Source\PSoC4/BLE_1_hids.c ****                 charValueHandle = cyBle_hidss[serviceIndex].bootReportArray[CYBLE_HIDS_BOOT_KYBRD_I
 256              		.loc 1 196 0
 257 00c2 FB1D     		add	r3, r7, #7
 258 00c4 1A78     		ldrb	r2, [r3]
 259 00c6 1423     		mov	r3, #20
 260 00c8 F918     		add	r1, r7, r3
ARM GAS  C:\Users\Jerry\AppData\Local\Temp\ccamILuW.s 			page 9


 261 00ca 4048     		ldr	r0, .L24+4
 262 00cc 131C     		mov	r3, r2
 263 00ce 9B00     		lsl	r3, r3, #2
 264 00d0 9B18     		add	r3, r3, r2
 265 00d2 DB00     		lsl	r3, r3, #3
 266 00d4 C318     		add	r3, r0, r3
 267 00d6 0833     		add	r3, r3, #8
 268 00d8 9B88     		ldrh	r3, [r3, #4]
 269 00da 0B80     		strh	r3, [r1]
 197:Generated_Source\PSoC4/BLE_1_hids.c ****                     reportHandle;
 198:Generated_Source\PSoC4/BLE_1_hids.c ****                 break;
 270              		.loc 1 198 0
 271 00dc 45E0     		b	.L18
 272              	.L16:
 199:Generated_Source\PSoC4/BLE_1_hids.c ****             case CYBLE_HIDS_BOOT_KYBRD_OUT_REP:
 200:Generated_Source\PSoC4/BLE_1_hids.c ****                 charValueHandle = cyBle_hidss[serviceIndex].bootReportArray[CYBLE_HIDS_BOOT_KYBRD_O
 273              		.loc 1 200 0
 274 00de FB1D     		add	r3, r7, #7
 275 00e0 1A78     		ldrb	r2, [r3]
 276 00e2 1423     		mov	r3, #20
 277 00e4 F918     		add	r1, r7, r3
 278 00e6 3948     		ldr	r0, .L24+4
 279 00e8 131C     		mov	r3, r2
 280 00ea 9B00     		lsl	r3, r3, #2
 281 00ec 9B18     		add	r3, r3, r2
 282 00ee DB00     		lsl	r3, r3, #3
 283 00f0 C318     		add	r3, r0, r3
 284 00f2 0E33     		add	r3, r3, #14
 285 00f4 9B88     		ldrh	r3, [r3, #4]
 286 00f6 0B80     		strh	r3, [r1]
 201:Generated_Source\PSoC4/BLE_1_hids.c ****                     reportHandle;
 202:Generated_Source\PSoC4/BLE_1_hids.c ****                 break;
 287              		.loc 1 202 0
 288 00f8 37E0     		b	.L18
 289              	.L17:
 203:Generated_Source\PSoC4/BLE_1_hids.c ****             case CYBLE_HIDS_BOOT_MOUSE_IN_REP:
 204:Generated_Source\PSoC4/BLE_1_hids.c ****                 charValueHandle = cyBle_hidss[serviceIndex].bootReportArray[CYBLE_HIDS_BOOT_MOUSE_I
 290              		.loc 1 204 0
 291 00fa FB1D     		add	r3, r7, #7
 292 00fc 1A78     		ldrb	r2, [r3]
 293 00fe 1423     		mov	r3, #20
 294 0100 F918     		add	r1, r7, r3
 295 0102 3248     		ldr	r0, .L24+4
 296 0104 131C     		mov	r3, r2
 297 0106 9B00     		lsl	r3, r3, #2
 298 0108 9B18     		add	r3, r3, r2
 299 010a DB00     		lsl	r3, r3, #3
 300 010c C318     		add	r3, r0, r3
 301 010e 1433     		add	r3, r3, #20
 302 0110 9B88     		ldrh	r3, [r3, #4]
 303 0112 0B80     		strh	r3, [r1]
 205:Generated_Source\PSoC4/BLE_1_hids.c ****                     reportHandle;
 206:Generated_Source\PSoC4/BLE_1_hids.c ****                 break;
 304              		.loc 1 206 0
 305 0114 29E0     		b	.L18
 306              	.L9:
 207:Generated_Source\PSoC4/BLE_1_hids.c ****             default:                    /* Report characteristic */
ARM GAS  C:\Users\Jerry\AppData\Local\Temp\ccamILuW.s 			page 10


 208:Generated_Source\PSoC4/BLE_1_hids.c ****                 /* Verify that requested report exists in particular service */
 209:Generated_Source\PSoC4/BLE_1_hids.c ****                 if((charIndex - CYBLE_HIDS_REPORT) < cyBle_hidss[serviceIndex].reportCount)
 307              		.loc 1 209 0
 308 0116 BB1D     		add	r3, r7, #6
 309 0118 1B78     		ldrb	r3, [r3]
 310 011a D91F     		sub	r1, r3, #7
 311 011c FB1D     		add	r3, r7, #7
 312 011e 1A78     		ldrb	r2, [r3]
 313 0120 2A48     		ldr	r0, .L24+4
 314 0122 131C     		mov	r3, r2
 315 0124 9B00     		lsl	r3, r3, #2
 316 0126 9B18     		add	r3, r3, r2
 317 0128 DB00     		lsl	r3, r3, #3
 318 012a C318     		add	r3, r0, r3
 319 012c 1B79     		ldrb	r3, [r3, #4]
 320 012e 9942     		cmp	r1, r3
 321 0130 16DA     		bge	.L19
 210:Generated_Source\PSoC4/BLE_1_hids.c ****                 {
 211:Generated_Source\PSoC4/BLE_1_hids.c ****                     charValueHandle = cyBle_hidss[serviceIndex].reportArray[charIndex - CYBLE_HIDS_
 322              		.loc 1 211 0
 323 0132 FB1D     		add	r3, r7, #7
 324 0134 1A78     		ldrb	r2, [r3]
 325 0136 2549     		ldr	r1, .L24+4
 326 0138 131C     		mov	r3, r2
 327 013a 9B00     		lsl	r3, r3, #2
 328 013c 9B18     		add	r3, r3, r2
 329 013e DB00     		lsl	r3, r3, #3
 330 0140 CB18     		add	r3, r1, r3
 331 0142 0833     		add	r3, r3, #8
 332 0144 1968     		ldr	r1, [r3]
 333 0146 BB1D     		add	r3, r7, #6
 334 0148 1A78     		ldrb	r2, [r3]
 335 014a 131C     		mov	r3, r2
 336 014c 5B00     		lsl	r3, r3, #1
 337 014e 9B18     		add	r3, r3, r2
 338 0150 5B00     		lsl	r3, r3, #1
 339 0152 2A3B     		sub	r3, r3, #42
 340 0154 CA18     		add	r2, r1, r3
 341 0156 1423     		mov	r3, #20
 342 0158 FB18     		add	r3, r7, r3
 343 015a 1288     		ldrh	r2, [r2]
 344 015c 1A80     		strh	r2, [r3]
 212:Generated_Source\PSoC4/BLE_1_hids.c ****                 }
 213:Generated_Source\PSoC4/BLE_1_hids.c ****                 else
 214:Generated_Source\PSoC4/BLE_1_hids.c ****                 {
 215:Generated_Source\PSoC4/BLE_1_hids.c ****                     charValueHandle = CYBLE_GATT_INVALID_ATTR_HANDLE_VALUE;
 216:Generated_Source\PSoC4/BLE_1_hids.c ****                 }
 217:Generated_Source\PSoC4/BLE_1_hids.c ****                 break;
 345              		.loc 1 217 0
 346 015e 03E0     		b	.L23
 347              	.L19:
 215:Generated_Source\PSoC4/BLE_1_hids.c ****                 }
 348              		.loc 1 215 0
 349 0160 1423     		mov	r3, #20
 350 0162 FB18     		add	r3, r7, r3
 351 0164 0022     		mov	r2, #0
 352 0166 1A80     		strh	r2, [r3]
ARM GAS  C:\Users\Jerry\AppData\Local\Temp\ccamILuW.s 			page 11


 353              	.L23:
 354              		.loc 1 217 0
 355 0168 C046     		mov	r8, r8
 356              	.L18:
 218:Generated_Source\PSoC4/BLE_1_hids.c ****         }
 219:Generated_Source\PSoC4/BLE_1_hids.c ****         if(charValueHandle == CYBLE_GATT_INVALID_ATTR_HANDLE_VALUE)
 357              		.loc 1 219 0
 358 016a 1423     		mov	r3, #20
 359 016c FB18     		add	r3, r7, r3
 360 016e 1B88     		ldrh	r3, [r3]
 361 0170 002B     		cmp	r3, #0
 362 0172 04D1     		bne	.L21
 220:Generated_Source\PSoC4/BLE_1_hids.c ****         {
 221:Generated_Source\PSoC4/BLE_1_hids.c ****             apiResult = CYBLE_ERROR_GATT_DB_INVALID_ATTR_HANDLE;
 363              		.loc 1 221 0
 364 0174 1623     		mov	r3, #22
 365 0176 FB18     		add	r3, r7, r3
 366 0178 1322     		mov	r2, #19
 367 017a 1A80     		strh	r2, [r3]
 368 017c 1DE0     		b	.L8
 369              	.L21:
 222:Generated_Source\PSoC4/BLE_1_hids.c ****         }
 223:Generated_Source\PSoC4/BLE_1_hids.c ****         else
 224:Generated_Source\PSoC4/BLE_1_hids.c ****         {
 225:Generated_Source\PSoC4/BLE_1_hids.c ****             /* Store data in database */
 226:Generated_Source\PSoC4/BLE_1_hids.c ****             locHandleValuePair.attrHandle = charValueHandle;
 370              		.loc 1 226 0
 371 017e 0823     		mov	r3, #8
 372 0180 FB18     		add	r3, r7, r3
 373 0182 1422     		mov	r2, #20
 374 0184 BA18     		add	r2, r7, r2
 375 0186 1288     		ldrh	r2, [r2]
 376 0188 1A81     		strh	r2, [r3, #8]
 227:Generated_Source\PSoC4/BLE_1_hids.c ****             locHandleValuePair.value.len = attrSize;
 377              		.loc 1 227 0
 378 018a 7B1D     		add	r3, r7, #5
 379 018c 1B78     		ldrb	r3, [r3]
 380 018e 9AB2     		uxth	r2, r3
 381 0190 0823     		mov	r3, #8
 382 0192 FB18     		add	r3, r7, r3
 383 0194 9A80     		strh	r2, [r3, #4]
 228:Generated_Source\PSoC4/BLE_1_hids.c ****             locHandleValuePair.value.val = attrValue;
 384              		.loc 1 228 0
 385 0196 0823     		mov	r3, #8
 386 0198 FB18     		add	r3, r7, r3
 387 019a 3A68     		ldr	r2, [r7]
 388 019c 1A60     		str	r2, [r3]
 229:Generated_Source\PSoC4/BLE_1_hids.c **** 
 230:Generated_Source\PSoC4/BLE_1_hids.c ****             if(CYBLE_GATT_ERR_NONE !=
 231:Generated_Source\PSoC4/BLE_1_hids.c ****                 CyBle_GattsWriteAttributeValue(&locHandleValuePair, 0u, NULL, CYBLE_GATT_DB_LOCALLY
 389              		.loc 1 231 0
 390 019e 0823     		mov	r3, #8
 391 01a0 FB18     		add	r3, r7, r3
 392 01a2 181C     		mov	r0, r3
 393 01a4 0021     		mov	r1, #0
 394 01a6 0022     		mov	r2, #0
 395 01a8 0023     		mov	r3, #0
ARM GAS  C:\Users\Jerry\AppData\Local\Temp\ccamILuW.s 			page 12


 396 01aa FFF7FEFF 		bl	CyBle_GattsWriteAttributeValue
 397 01ae 031E     		sub	r3, r0, #0
 230:Generated_Source\PSoC4/BLE_1_hids.c ****                 CyBle_GattsWriteAttributeValue(&locHandleValuePair, 0u, NULL, CYBLE_GATT_DB_LOCALLY
 398              		.loc 1 230 0
 399 01b0 03D0     		beq	.L8
 232:Generated_Source\PSoC4/BLE_1_hids.c ****             {
 233:Generated_Source\PSoC4/BLE_1_hids.c ****                 apiResult = CYBLE_ERROR_INVALID_PARAMETER;
 400              		.loc 1 233 0
 401 01b2 1623     		mov	r3, #22
 402 01b4 FB18     		add	r3, r7, r3
 403 01b6 0122     		mov	r2, #1
 404 01b8 1A80     		strh	r2, [r3]
 405              	.L8:
 234:Generated_Source\PSoC4/BLE_1_hids.c ****             }
 235:Generated_Source\PSoC4/BLE_1_hids.c ****         }
 236:Generated_Source\PSoC4/BLE_1_hids.c ****     }
 237:Generated_Source\PSoC4/BLE_1_hids.c ****     return (apiResult);
 406              		.loc 1 237 0
 407 01ba 1623     		mov	r3, #22
 408 01bc FB18     		add	r3, r7, r3
 409 01be 1B88     		ldrh	r3, [r3]
 238:Generated_Source\PSoC4/BLE_1_hids.c **** }
 410              		.loc 1 238 0
 411 01c0 181C     		mov	r0, r3
 412 01c2 BD46     		mov	sp, r7
 413 01c4 07B0     		add	sp, sp, #28
 414              		@ sp needed
 415 01c6 90BD     		pop	{r4, r7, pc}
 416              	.L25:
 417              		.align	2
 418              	.L24:
 419 01c8 30000000 		.word	.L11
 420 01cc 00000000 		.word	cyBle_hidss
 421              		.cfi_endproc
 422              	.LFE4:
 423              		.size	CyBle_HidssSetCharacteristicValue, .-CyBle_HidssSetCharacteristicValue
 424              		.section	.text.CyBle_HidssGetCharacteristicValue,"ax",%progbits
 425              		.align	2
 426              		.global	CyBle_HidssGetCharacteristicValue
 427              		.code	16
 428              		.thumb_func
 429              		.type	CyBle_HidssGetCharacteristicValue, %function
 430              	CyBle_HidssGetCharacteristicValue:
 431              	.LFB5:
 239:Generated_Source\PSoC4/BLE_1_hids.c **** 
 240:Generated_Source\PSoC4/BLE_1_hids.c **** 
 241:Generated_Source\PSoC4/BLE_1_hids.c **** /****************************************************************************** 
 242:Generated_Source\PSoC4/BLE_1_hids.c **** * Function Name: CyBle_HidssGetCharacteristicValue
 243:Generated_Source\PSoC4/BLE_1_hids.c **** ***************************************************************************//**
 244:Generated_Source\PSoC4/BLE_1_hids.c **** * 
 245:Generated_Source\PSoC4/BLE_1_hids.c **** *  Gets local characteristic value of the specified HID Service characteristics.
 246:Generated_Source\PSoC4/BLE_1_hids.c **** * 
 247:Generated_Source\PSoC4/BLE_1_hids.c **** *  \param serviceIndex: The index of the service instance. e.g. If two HID Services are 
 248:Generated_Source\PSoC4/BLE_1_hids.c **** *                 supported in your design, then first service will be identified
 249:Generated_Source\PSoC4/BLE_1_hids.c **** *                 by serviceIndex of 0 and the second by serviceIndex of 1.
 250:Generated_Source\PSoC4/BLE_1_hids.c **** * 
 251:Generated_Source\PSoC4/BLE_1_hids.c **** *  \param charIndex: The index of the service characteristic. 
ARM GAS  C:\Users\Jerry\AppData\Local\Temp\ccamILuW.s 			page 13


 252:Generated_Source\PSoC4/BLE_1_hids.c **** *              * CYBLE_HIDS_PROTOCOL_MODE - Protocol Mode characteristic
 253:Generated_Source\PSoC4/BLE_1_hids.c **** *              * CYBLE_HIDS_REPORT_MAP - Report Map characteristic
 254:Generated_Source\PSoC4/BLE_1_hids.c **** *              * CYBLE_HIDS_INFORMATION - HID Information characteristic
 255:Generated_Source\PSoC4/BLE_1_hids.c **** *              * CYBLE_HIDS_CONTROL_POINT - HID Control Point characteristic
 256:Generated_Source\PSoC4/BLE_1_hids.c **** *              * CYBLE_HIDS_BOOT_KYBRD_IN_REP - Boot Keyboard Input Report Characteristic
 257:Generated_Source\PSoC4/BLE_1_hids.c **** *              * CYBLE_HIDS_BOOT_KYBRD_OUT_REP - Boot Keyboard Output Report Characteristic
 258:Generated_Source\PSoC4/BLE_1_hids.c **** *              * CYBLE_HIDS_BOOT_MOUSE_IN_REP - Boot Mouse Input Report Characteristic
 259:Generated_Source\PSoC4/BLE_1_hids.c **** *              * CYBLE_HIDS_REPORT - Report Characteristic
 260:Generated_Source\PSoC4/BLE_1_hids.c **** * 
 261:Generated_Source\PSoC4/BLE_1_hids.c **** *  \param attrSize: The size of the characteristic value attribute.
 262:Generated_Source\PSoC4/BLE_1_hids.c **** * 
 263:Generated_Source\PSoC4/BLE_1_hids.c **** *  \param attrValue: The pointer to the location where characteristic value data
 264:Generated_Source\PSoC4/BLE_1_hids.c **** *               should be stored.
 265:Generated_Source\PSoC4/BLE_1_hids.c **** * 
 266:Generated_Source\PSoC4/BLE_1_hids.c **** * \return
 267:Generated_Source\PSoC4/BLE_1_hids.c **** *  Return value is of type CYBLE_API_RESULT_T.
 268:Generated_Source\PSoC4/BLE_1_hids.c **** *  * CYBLE_ERROR_OK - The request handled successfully
 269:Generated_Source\PSoC4/BLE_1_hids.c **** *  * CYBLE_ERROR_INVALID_PARAMETER - Validation of the input parameter failed
 270:Generated_Source\PSoC4/BLE_1_hids.c **** *  * CYBLE_ERROR_GATT_DB_INVALID_ATTR_HANDLE - Optional characteristic is absent
 271:Generated_Source\PSoC4/BLE_1_hids.c **** *
 272:Generated_Source\PSoC4/BLE_1_hids.c **** *
 273:Generated_Source\PSoC4/BLE_1_hids.c **** ******************************************************************************/
 274:Generated_Source\PSoC4/BLE_1_hids.c **** CYBLE_API_RESULT_T CyBle_HidssGetCharacteristicValue(uint8 serviceIndex, CYBLE_HIDS_CHAR_INDEX_T ch
 275:Generated_Source\PSoC4/BLE_1_hids.c ****     uint8 attrSize, uint8 *attrValue)
 276:Generated_Source\PSoC4/BLE_1_hids.c **** {
 432              		.loc 1 276 0
 433              		.cfi_startproc
 434 0000 90B5     		push	{r4, r7, lr}
 435              		.cfi_def_cfa_offset 12
 436              		.cfi_offset 4, -12
 437              		.cfi_offset 7, -8
 438              		.cfi_offset 14, -4
 439 0002 87B0     		sub	sp, sp, #28
 440              		.cfi_def_cfa_offset 40
 441 0004 00AF     		add	r7, sp, #0
 442              		.cfi_def_cfa_register 7
 443 0006 041C     		mov	r4, r0
 444 0008 081C     		mov	r0, r1
 445 000a 111C     		mov	r1, r2
 446 000c 3B60     		str	r3, [r7]
 447 000e FB1D     		add	r3, r7, #7
 448 0010 221C     		add	r2, r4, #0
 449 0012 1A70     		strb	r2, [r3]
 450 0014 BB1D     		add	r3, r7, #6
 451 0016 021C     		add	r2, r0, #0
 452 0018 1A70     		strb	r2, [r3]
 453 001a 7B1D     		add	r3, r7, #5
 454 001c 0A1C     		add	r2, r1, #0
 455 001e 1A70     		strb	r2, [r3]
 277:Generated_Source\PSoC4/BLE_1_hids.c ****     CYBLE_API_RESULT_T apiResult = CYBLE_ERROR_OK;
 456              		.loc 1 277 0
 457 0020 1623     		mov	r3, #22
 458 0022 FB18     		add	r3, r7, r3
 459 0024 0022     		mov	r2, #0
 460 0026 1A80     		strh	r2, [r3]
 278:Generated_Source\PSoC4/BLE_1_hids.c ****     CYBLE_GATT_DB_ATTR_HANDLE_T charValueHandle;
 279:Generated_Source\PSoC4/BLE_1_hids.c ****     CYBLE_GATT_HANDLE_VALUE_PAIR_T locHandleValuePair;
ARM GAS  C:\Users\Jerry\AppData\Local\Temp\ccamILuW.s 			page 14


 280:Generated_Source\PSoC4/BLE_1_hids.c **** 
 281:Generated_Source\PSoC4/BLE_1_hids.c ****     if((serviceIndex >= CYBLE_HIDSS_SERVICE_COUNT) || (charIndex >= CYBLE_HIDS_CHAR_COUNT))
 461              		.loc 1 281 0
 462 0028 FB1D     		add	r3, r7, #7
 463 002a 1B78     		ldrb	r3, [r3]
 464 002c 002B     		cmp	r3, #0
 465 002e 03D1     		bne	.L27
 466              		.loc 1 281 0 is_stmt 0 discriminator 1
 467 0030 BB1D     		add	r3, r7, #6
 468 0032 1B78     		ldrb	r3, [r3]
 469 0034 072B     		cmp	r3, #7
 470 0036 04D9     		bls	.L28
 471              	.L27:
 282:Generated_Source\PSoC4/BLE_1_hids.c ****     {
 283:Generated_Source\PSoC4/BLE_1_hids.c ****         apiResult = CYBLE_ERROR_INVALID_PARAMETER;
 472              		.loc 1 283 0 is_stmt 1
 473 0038 1623     		mov	r3, #22
 474 003a FB18     		add	r3, r7, r3
 475 003c 0122     		mov	r2, #1
 476 003e 1A80     		strh	r2, [r3]
 477 0040 BAE0     		b	.L29
 478              	.L28:
 284:Generated_Source\PSoC4/BLE_1_hids.c ****     }
 285:Generated_Source\PSoC4/BLE_1_hids.c ****     else
 286:Generated_Source\PSoC4/BLE_1_hids.c ****     {
 287:Generated_Source\PSoC4/BLE_1_hids.c ****         switch(charIndex)
 479              		.loc 1 287 0
 480 0042 BB1D     		add	r3, r7, #6
 481 0044 1B78     		ldrb	r3, [r3]
 482 0046 062B     		cmp	r3, #6
 483 0048 65D8     		bhi	.L30
 484 004a 9A00     		lsl	r2, r3, #2
 485 004c 5E4B     		ldr	r3, .L45
 486 004e D318     		add	r3, r2, r3
 487 0050 1B68     		ldr	r3, [r3]
 488 0052 9F46     		mov	pc, r3
 489              		.section	.rodata
 490              		.align	2
 491              	.L32:
 492 004c 54000000 		.word	.L31
 493 0050 8A000000 		.word	.L33
 494 0054 A6000000 		.word	.L34
 495 0058 6E000000 		.word	.L35
 496 005c C2000000 		.word	.L36
 497 0060 DE000000 		.word	.L37
 498 0064 FA000000 		.word	.L38
 499              		.section	.text.CyBle_HidssGetCharacteristicValue
 500              	.L31:
 288:Generated_Source\PSoC4/BLE_1_hids.c ****         {
 289:Generated_Source\PSoC4/BLE_1_hids.c ****             case CYBLE_HIDS_PROTOCOL_MODE:
 290:Generated_Source\PSoC4/BLE_1_hids.c ****                 charValueHandle = cyBle_hidss[serviceIndex].protocolModeHandle;
 501              		.loc 1 290 0
 502 0054 FB1D     		add	r3, r7, #7
 503 0056 1A78     		ldrb	r2, [r3]
 504 0058 1423     		mov	r3, #20
 505 005a F918     		add	r1, r7, r3
 506 005c 5B48     		ldr	r0, .L45+4
ARM GAS  C:\Users\Jerry\AppData\Local\Temp\ccamILuW.s 			page 15


 507 005e 131C     		mov	r3, r2
 508 0060 9B00     		lsl	r3, r3, #2
 509 0062 9B18     		add	r3, r3, r2
 510 0064 DB00     		lsl	r3, r3, #3
 511 0066 C318     		add	r3, r0, r3
 512 0068 5B88     		ldrh	r3, [r3, #2]
 513 006a 0B80     		strh	r3, [r1]
 291:Generated_Source\PSoC4/BLE_1_hids.c ****                 break;
 514              		.loc 1 291 0
 515 006c 7DE0     		b	.L39
 516              	.L35:
 292:Generated_Source\PSoC4/BLE_1_hids.c ****             case CYBLE_HIDS_REPORT_MAP:
 293:Generated_Source\PSoC4/BLE_1_hids.c ****                 charValueHandle = cyBle_hidss[serviceIndex].reportMapHandle;
 517              		.loc 1 293 0
 518 006e FB1D     		add	r3, r7, #7
 519 0070 1A78     		ldrb	r2, [r3]
 520 0072 1423     		mov	r3, #20
 521 0074 F918     		add	r1, r7, r3
 522 0076 5548     		ldr	r0, .L45+4
 523 0078 131C     		mov	r3, r2
 524 007a 9B00     		lsl	r3, r3, #2
 525 007c 9B18     		add	r3, r3, r2
 526 007e DB00     		lsl	r3, r3, #3
 527 0080 C318     		add	r3, r0, r3
 528 0082 1833     		add	r3, r3, #24
 529 0084 DB88     		ldrh	r3, [r3, #6]
 530 0086 0B80     		strh	r3, [r1]
 294:Generated_Source\PSoC4/BLE_1_hids.c ****                 break;
 531              		.loc 1 294 0
 532 0088 6FE0     		b	.L39
 533              	.L33:
 295:Generated_Source\PSoC4/BLE_1_hids.c ****             case CYBLE_HIDS_INFORMATION:
 296:Generated_Source\PSoC4/BLE_1_hids.c ****                 charValueHandle = cyBle_hidss[serviceIndex].informationHandle;
 534              		.loc 1 296 0
 535 008a FB1D     		add	r3, r7, #7
 536 008c 1A78     		ldrb	r2, [r3]
 537 008e 1423     		mov	r3, #20
 538 0090 F918     		add	r1, r7, r3
 539 0092 4E48     		ldr	r0, .L45+4
 540 0094 131C     		mov	r3, r2
 541 0096 9B00     		lsl	r3, r3, #2
 542 0098 9B18     		add	r3, r3, r2
 543 009a DB00     		lsl	r3, r3, #3
 544 009c C318     		add	r3, r0, r3
 545 009e 2033     		add	r3, r3, #32
 546 00a0 5B88     		ldrh	r3, [r3, #2]
 547 00a2 0B80     		strh	r3, [r1]
 297:Generated_Source\PSoC4/BLE_1_hids.c ****                 break;
 548              		.loc 1 297 0
 549 00a4 61E0     		b	.L39
 550              	.L34:
 298:Generated_Source\PSoC4/BLE_1_hids.c ****             case CYBLE_HIDS_CONTROL_POINT:
 299:Generated_Source\PSoC4/BLE_1_hids.c ****                 charValueHandle = cyBle_hidss[serviceIndex].controlPointHandle;
 551              		.loc 1 299 0
 552 00a6 FB1D     		add	r3, r7, #7
 553 00a8 1A78     		ldrb	r2, [r3]
 554 00aa 1423     		mov	r3, #20
ARM GAS  C:\Users\Jerry\AppData\Local\Temp\ccamILuW.s 			page 16


 555 00ac F918     		add	r1, r7, r3
 556 00ae 4748     		ldr	r0, .L45+4
 557 00b0 131C     		mov	r3, r2
 558 00b2 9B00     		lsl	r3, r3, #2
 559 00b4 9B18     		add	r3, r3, r2
 560 00b6 DB00     		lsl	r3, r3, #3
 561 00b8 C318     		add	r3, r0, r3
 562 00ba 2033     		add	r3, r3, #32
 563 00bc 9B88     		ldrh	r3, [r3, #4]
 564 00be 0B80     		strh	r3, [r1]
 300:Generated_Source\PSoC4/BLE_1_hids.c ****                 break;
 565              		.loc 1 300 0
 566 00c0 53E0     		b	.L39
 567              	.L36:
 301:Generated_Source\PSoC4/BLE_1_hids.c ****             case CYBLE_HIDS_BOOT_KYBRD_IN_REP:
 302:Generated_Source\PSoC4/BLE_1_hids.c ****                 charValueHandle =
 303:Generated_Source\PSoC4/BLE_1_hids.c ****                     cyBle_hidss[serviceIndex].bootReportArray[CYBLE_HIDS_BOOT_KYBRD_IN_REP_INDX].re
 568              		.loc 1 303 0
 569 00c2 FB1D     		add	r3, r7, #7
 570 00c4 1A78     		ldrb	r2, [r3]
 302:Generated_Source\PSoC4/BLE_1_hids.c ****                     cyBle_hidss[serviceIndex].bootReportArray[CYBLE_HIDS_BOOT_KYBRD_IN_REP_INDX].re
 571              		.loc 1 302 0
 572 00c6 1423     		mov	r3, #20
 573 00c8 F918     		add	r1, r7, r3
 574 00ca 4048     		ldr	r0, .L45+4
 575 00cc 131C     		mov	r3, r2
 576 00ce 9B00     		lsl	r3, r3, #2
 577 00d0 9B18     		add	r3, r3, r2
 578 00d2 DB00     		lsl	r3, r3, #3
 579 00d4 C318     		add	r3, r0, r3
 580 00d6 0833     		add	r3, r3, #8
 581 00d8 9B88     		ldrh	r3, [r3, #4]
 582 00da 0B80     		strh	r3, [r1]
 304:Generated_Source\PSoC4/BLE_1_hids.c ****                 break;
 583              		.loc 1 304 0
 584 00dc 45E0     		b	.L39
 585              	.L37:
 305:Generated_Source\PSoC4/BLE_1_hids.c ****             case CYBLE_HIDS_BOOT_KYBRD_OUT_REP:
 306:Generated_Source\PSoC4/BLE_1_hids.c ****                 charValueHandle =
 307:Generated_Source\PSoC4/BLE_1_hids.c ****                     cyBle_hidss[serviceIndex].bootReportArray[CYBLE_HIDS_BOOT_KYBRD_OUT_REP_INDX].r
 586              		.loc 1 307 0
 587 00de FB1D     		add	r3, r7, #7
 588 00e0 1A78     		ldrb	r2, [r3]
 306:Generated_Source\PSoC4/BLE_1_hids.c ****                     cyBle_hidss[serviceIndex].bootReportArray[CYBLE_HIDS_BOOT_KYBRD_OUT_REP_INDX].r
 589              		.loc 1 306 0
 590 00e2 1423     		mov	r3, #20
 591 00e4 F918     		add	r1, r7, r3
 592 00e6 3948     		ldr	r0, .L45+4
 593 00e8 131C     		mov	r3, r2
 594 00ea 9B00     		lsl	r3, r3, #2
 595 00ec 9B18     		add	r3, r3, r2
 596 00ee DB00     		lsl	r3, r3, #3
 597 00f0 C318     		add	r3, r0, r3
 598 00f2 0E33     		add	r3, r3, #14
 599 00f4 9B88     		ldrh	r3, [r3, #4]
 600 00f6 0B80     		strh	r3, [r1]
 308:Generated_Source\PSoC4/BLE_1_hids.c ****                 break;
ARM GAS  C:\Users\Jerry\AppData\Local\Temp\ccamILuW.s 			page 17


 601              		.loc 1 308 0
 602 00f8 37E0     		b	.L39
 603              	.L38:
 309:Generated_Source\PSoC4/BLE_1_hids.c ****             case CYBLE_HIDS_BOOT_MOUSE_IN_REP:
 310:Generated_Source\PSoC4/BLE_1_hids.c ****                 charValueHandle =
 311:Generated_Source\PSoC4/BLE_1_hids.c ****                     cyBle_hidss[serviceIndex].bootReportArray[CYBLE_HIDS_BOOT_MOUSE_IN_REP_INDX].re
 604              		.loc 1 311 0
 605 00fa FB1D     		add	r3, r7, #7
 606 00fc 1A78     		ldrb	r2, [r3]
 310:Generated_Source\PSoC4/BLE_1_hids.c ****                     cyBle_hidss[serviceIndex].bootReportArray[CYBLE_HIDS_BOOT_MOUSE_IN_REP_INDX].re
 607              		.loc 1 310 0
 608 00fe 1423     		mov	r3, #20
 609 0100 F918     		add	r1, r7, r3
 610 0102 3248     		ldr	r0, .L45+4
 611 0104 131C     		mov	r3, r2
 612 0106 9B00     		lsl	r3, r3, #2
 613 0108 9B18     		add	r3, r3, r2
 614 010a DB00     		lsl	r3, r3, #3
 615 010c C318     		add	r3, r0, r3
 616 010e 1433     		add	r3, r3, #20
 617 0110 9B88     		ldrh	r3, [r3, #4]
 618 0112 0B80     		strh	r3, [r1]
 312:Generated_Source\PSoC4/BLE_1_hids.c ****                 break;
 619              		.loc 1 312 0
 620 0114 29E0     		b	.L39
 621              	.L30:
 313:Generated_Source\PSoC4/BLE_1_hids.c ****             default:                    /* Report characteristic */
 314:Generated_Source\PSoC4/BLE_1_hids.c ****                 /* Verify that requested report exists in particular service */
 315:Generated_Source\PSoC4/BLE_1_hids.c ****                 if((charIndex - CYBLE_HIDS_REPORT) < cyBle_hidss[serviceIndex].reportCount)
 622              		.loc 1 315 0
 623 0116 BB1D     		add	r3, r7, #6
 624 0118 1B78     		ldrb	r3, [r3]
 625 011a D91F     		sub	r1, r3, #7
 626 011c FB1D     		add	r3, r7, #7
 627 011e 1A78     		ldrb	r2, [r3]
 628 0120 2A48     		ldr	r0, .L45+4
 629 0122 131C     		mov	r3, r2
 630 0124 9B00     		lsl	r3, r3, #2
 631 0126 9B18     		add	r3, r3, r2
 632 0128 DB00     		lsl	r3, r3, #3
 633 012a C318     		add	r3, r0, r3
 634 012c 1B79     		ldrb	r3, [r3, #4]
 635 012e 9942     		cmp	r1, r3
 636 0130 16DA     		bge	.L40
 316:Generated_Source\PSoC4/BLE_1_hids.c ****                 {
 317:Generated_Source\PSoC4/BLE_1_hids.c ****                     charValueHandle = cyBle_hidss[serviceIndex].reportArray[charIndex - CYBLE_HIDS_
 637              		.loc 1 317 0
 638 0132 FB1D     		add	r3, r7, #7
 639 0134 1A78     		ldrb	r2, [r3]
 640 0136 2549     		ldr	r1, .L45+4
 641 0138 131C     		mov	r3, r2
 642 013a 9B00     		lsl	r3, r3, #2
 643 013c 9B18     		add	r3, r3, r2
 644 013e DB00     		lsl	r3, r3, #3
 645 0140 CB18     		add	r3, r1, r3
 646 0142 0833     		add	r3, r3, #8
 647 0144 1968     		ldr	r1, [r3]
ARM GAS  C:\Users\Jerry\AppData\Local\Temp\ccamILuW.s 			page 18


 648 0146 BB1D     		add	r3, r7, #6
 649 0148 1A78     		ldrb	r2, [r3]
 650 014a 131C     		mov	r3, r2
 651 014c 5B00     		lsl	r3, r3, #1
 652 014e 9B18     		add	r3, r3, r2
 653 0150 5B00     		lsl	r3, r3, #1
 654 0152 2A3B     		sub	r3, r3, #42
 655 0154 CA18     		add	r2, r1, r3
 656 0156 1423     		mov	r3, #20
 657 0158 FB18     		add	r3, r7, r3
 658 015a 1288     		ldrh	r2, [r2]
 659 015c 1A80     		strh	r2, [r3]
 318:Generated_Source\PSoC4/BLE_1_hids.c ****                 }
 319:Generated_Source\PSoC4/BLE_1_hids.c ****                 else
 320:Generated_Source\PSoC4/BLE_1_hids.c ****                 {
 321:Generated_Source\PSoC4/BLE_1_hids.c ****                     charValueHandle = CYBLE_GATT_INVALID_ATTR_HANDLE_VALUE;
 322:Generated_Source\PSoC4/BLE_1_hids.c ****                 }
 323:Generated_Source\PSoC4/BLE_1_hids.c ****                 break;
 660              		.loc 1 323 0
 661 015e 03E0     		b	.L44
 662              	.L40:
 321:Generated_Source\PSoC4/BLE_1_hids.c ****                 }
 663              		.loc 1 321 0
 664 0160 1423     		mov	r3, #20
 665 0162 FB18     		add	r3, r7, r3
 666 0164 0022     		mov	r2, #0
 667 0166 1A80     		strh	r2, [r3]
 668              	.L44:
 669              		.loc 1 323 0
 670 0168 C046     		mov	r8, r8
 671              	.L39:
 324:Generated_Source\PSoC4/BLE_1_hids.c ****         }
 325:Generated_Source\PSoC4/BLE_1_hids.c **** 
 326:Generated_Source\PSoC4/BLE_1_hids.c ****         if(charValueHandle == CYBLE_GATT_INVALID_ATTR_HANDLE_VALUE)
 672              		.loc 1 326 0
 673 016a 1423     		mov	r3, #20
 674 016c FB18     		add	r3, r7, r3
 675 016e 1B88     		ldrh	r3, [r3]
 676 0170 002B     		cmp	r3, #0
 677 0172 04D1     		bne	.L42
 327:Generated_Source\PSoC4/BLE_1_hids.c ****         {
 328:Generated_Source\PSoC4/BLE_1_hids.c ****             apiResult = CYBLE_ERROR_GATT_DB_INVALID_ATTR_HANDLE;
 678              		.loc 1 328 0
 679 0174 1623     		mov	r3, #22
 680 0176 FB18     		add	r3, r7, r3
 681 0178 1322     		mov	r2, #19
 682 017a 1A80     		strh	r2, [r3]
 683 017c 1CE0     		b	.L29
 684              	.L42:
 329:Generated_Source\PSoC4/BLE_1_hids.c ****         }
 330:Generated_Source\PSoC4/BLE_1_hids.c ****         else
 331:Generated_Source\PSoC4/BLE_1_hids.c ****         {
 332:Generated_Source\PSoC4/BLE_1_hids.c ****             /* Read characteristic value from database */
 333:Generated_Source\PSoC4/BLE_1_hids.c ****             locHandleValuePair.attrHandle = charValueHandle;
 685              		.loc 1 333 0
 686 017e 0823     		mov	r3, #8
 687 0180 FB18     		add	r3, r7, r3
ARM GAS  C:\Users\Jerry\AppData\Local\Temp\ccamILuW.s 			page 19


 688 0182 1422     		mov	r2, #20
 689 0184 BA18     		add	r2, r7, r2
 690 0186 1288     		ldrh	r2, [r2]
 691 0188 1A81     		strh	r2, [r3, #8]
 334:Generated_Source\PSoC4/BLE_1_hids.c ****             locHandleValuePair.value.len = attrSize;
 692              		.loc 1 334 0
 693 018a 7B1D     		add	r3, r7, #5
 694 018c 1B78     		ldrb	r3, [r3]
 695 018e 9AB2     		uxth	r2, r3
 696 0190 0823     		mov	r3, #8
 697 0192 FB18     		add	r3, r7, r3
 698 0194 9A80     		strh	r2, [r3, #4]
 335:Generated_Source\PSoC4/BLE_1_hids.c ****             locHandleValuePair.value.val = attrValue;
 699              		.loc 1 335 0
 700 0196 0823     		mov	r3, #8
 701 0198 FB18     		add	r3, r7, r3
 702 019a 3A68     		ldr	r2, [r7]
 703 019c 1A60     		str	r2, [r3]
 336:Generated_Source\PSoC4/BLE_1_hids.c ****             if(CYBLE_GATT_ERR_NONE !=
 337:Generated_Source\PSoC4/BLE_1_hids.c ****                 CyBle_GattsReadAttributeValue(&locHandleValuePair, NULL, CYBLE_GATT_DB_LOCALLY_INIT
 704              		.loc 1 337 0
 705 019e 0823     		mov	r3, #8
 706 01a0 FB18     		add	r3, r7, r3
 707 01a2 181C     		mov	r0, r3
 708 01a4 0021     		mov	r1, #0
 709 01a6 0022     		mov	r2, #0
 710 01a8 FFF7FEFF 		bl	CyBle_GattsReadAttributeValue
 711 01ac 031E     		sub	r3, r0, #0
 336:Generated_Source\PSoC4/BLE_1_hids.c ****             if(CYBLE_GATT_ERR_NONE !=
 712              		.loc 1 336 0
 713 01ae 03D0     		beq	.L29
 338:Generated_Source\PSoC4/BLE_1_hids.c ****             {
 339:Generated_Source\PSoC4/BLE_1_hids.c ****                 apiResult = CYBLE_ERROR_INVALID_PARAMETER;
 714              		.loc 1 339 0
 715 01b0 1623     		mov	r3, #22
 716 01b2 FB18     		add	r3, r7, r3
 717 01b4 0122     		mov	r2, #1
 718 01b6 1A80     		strh	r2, [r3]
 719              	.L29:
 340:Generated_Source\PSoC4/BLE_1_hids.c ****             }
 341:Generated_Source\PSoC4/BLE_1_hids.c ****         }
 342:Generated_Source\PSoC4/BLE_1_hids.c ****     }
 343:Generated_Source\PSoC4/BLE_1_hids.c ****     return (apiResult);
 720              		.loc 1 343 0
 721 01b8 1623     		mov	r3, #22
 722 01ba FB18     		add	r3, r7, r3
 723 01bc 1B88     		ldrh	r3, [r3]
 344:Generated_Source\PSoC4/BLE_1_hids.c **** }
 724              		.loc 1 344 0
 725 01be 181C     		mov	r0, r3
 726 01c0 BD46     		mov	sp, r7
 727 01c2 07B0     		add	sp, sp, #28
 728              		@ sp needed
 729 01c4 90BD     		pop	{r4, r7, pc}
 730              	.L46:
 731 01c6 C046     		.align	2
 732              	.L45:
ARM GAS  C:\Users\Jerry\AppData\Local\Temp\ccamILuW.s 			page 20


 733 01c8 4C000000 		.word	.L32
 734 01cc 00000000 		.word	cyBle_hidss
 735              		.cfi_endproc
 736              	.LFE5:
 737              		.size	CyBle_HidssGetCharacteristicValue, .-CyBle_HidssGetCharacteristicValue
 738              		.section	.text.CyBle_HidssGetCharacteristicDescriptor,"ax",%progbits
 739              		.align	2
 740              		.global	CyBle_HidssGetCharacteristicDescriptor
 741              		.code	16
 742              		.thumb_func
 743              		.type	CyBle_HidssGetCharacteristicDescriptor, %function
 744              	CyBle_HidssGetCharacteristicDescriptor:
 745              	.LFB6:
 345:Generated_Source\PSoC4/BLE_1_hids.c **** 
 346:Generated_Source\PSoC4/BLE_1_hids.c **** 
 347:Generated_Source\PSoC4/BLE_1_hids.c **** /****************************************************************************** 
 348:Generated_Source\PSoC4/BLE_1_hids.c **** * Function Name: CyBle_HidssGetCharacteristicDescriptor
 349:Generated_Source\PSoC4/BLE_1_hids.c **** ***************************************************************************//**
 350:Generated_Source\PSoC4/BLE_1_hids.c **** * 
 351:Generated_Source\PSoC4/BLE_1_hids.c **** *  Gets local characteristic descriptor of the specified HID Service 
 352:Generated_Source\PSoC4/BLE_1_hids.c **** *  characteristic.
 353:Generated_Source\PSoC4/BLE_1_hids.c **** * 
 354:Generated_Source\PSoC4/BLE_1_hids.c **** *  \param serviceIndex: The index of the service instance. e.g. If two HID Services are 
 355:Generated_Source\PSoC4/BLE_1_hids.c **** *                 supported in your design, then first service will be identified
 356:Generated_Source\PSoC4/BLE_1_hids.c **** *                 by serviceIndex of 0 and the second by serviceIndex of 1.
 357:Generated_Source\PSoC4/BLE_1_hids.c **** * 
 358:Generated_Source\PSoC4/BLE_1_hids.c **** *  \param charIndex: The index of the characteristic.
 359:Generated_Source\PSoC4/BLE_1_hids.c **** *              * CYBLE_HIDS_REPORT_MAP          - Report Map Characteristic
 360:Generated_Source\PSoC4/BLE_1_hids.c **** *              * CYBLE_HIDS_BOOT_KYBRD_IN_REP   - Boot Keyboard Input Report Characteristic
 361:Generated_Source\PSoC4/BLE_1_hids.c **** *              * CYBLE_HIDS_BOOT_KYBRD_OUT_REP  - Boot Keyboard Output Report Characteristic
 362:Generated_Source\PSoC4/BLE_1_hids.c **** *              * CYBLE_HIDS_BOOT_MOUSE_IN_REP   - Boot Mouse Input Report Characteristic
 363:Generated_Source\PSoC4/BLE_1_hids.c **** *              * CYBLE_HIDS_REPORT              - Report Characteristic
 364:Generated_Source\PSoC4/BLE_1_hids.c **** * 
 365:Generated_Source\PSoC4/BLE_1_hids.c **** *  \param descrIndex: The index of the descriptor.
 366:Generated_Source\PSoC4/BLE_1_hids.c **** *               * CYBLE_HIDS_REPORT_CCCD - Client Characteristic Configuration descriptor
 367:Generated_Source\PSoC4/BLE_1_hids.c **** *               * CYBLE_HIDS_REPORT_RRD - Report Reference descriptor
 368:Generated_Source\PSoC4/BLE_1_hids.c **** *               * CYBLE_HIDS_REPORT_MAP_ERRD - Report Map External Report Reference descriptor
 369:Generated_Source\PSoC4/BLE_1_hids.c **** * 
 370:Generated_Source\PSoC4/BLE_1_hids.c **** *  \param attrSize: The size of the descriptor value attribute.
 371:Generated_Source\PSoC4/BLE_1_hids.c **** * 
 372:Generated_Source\PSoC4/BLE_1_hids.c **** *  \param attrValue: The pointer to the location where characteristic descriptor
 373:Generated_Source\PSoC4/BLE_1_hids.c **** *               value data should be stored.
 374:Generated_Source\PSoC4/BLE_1_hids.c **** * 
 375:Generated_Source\PSoC4/BLE_1_hids.c **** * \return
 376:Generated_Source\PSoC4/BLE_1_hids.c **** *  Return value is of type CYBLE_API_RESULT_T.
 377:Generated_Source\PSoC4/BLE_1_hids.c **** *  * CYBLE_ERROR_OK - The request handled successfully
 378:Generated_Source\PSoC4/BLE_1_hids.c **** *  * CYBLE_ERROR_INVALID_PARAMETER - Validation of the input parameter failed
 379:Generated_Source\PSoC4/BLE_1_hids.c **** *  * CYBLE_ERROR_GATT_DB_INVALID_ATTR_HANDLE - Optional descriptor is absent
 380:Generated_Source\PSoC4/BLE_1_hids.c **** *
 381:Generated_Source\PSoC4/BLE_1_hids.c **** *
 382:Generated_Source\PSoC4/BLE_1_hids.c **** ******************************************************************************/
 383:Generated_Source\PSoC4/BLE_1_hids.c **** CYBLE_API_RESULT_T CyBle_HidssGetCharacteristicDescriptor(uint8 serviceIndex, CYBLE_HIDS_CHAR_INDEX
 384:Generated_Source\PSoC4/BLE_1_hids.c ****     CYBLE_HIDS_DESCR_T descrIndex, uint8 attrSize, uint8 *attrValue)
 385:Generated_Source\PSoC4/BLE_1_hids.c **** {
 746              		.loc 1 385 0
 747              		.cfi_startproc
 748 0000 B0B5     		push	{r4, r5, r7, lr}
ARM GAS  C:\Users\Jerry\AppData\Local\Temp\ccamILuW.s 			page 21


 749              		.cfi_def_cfa_offset 16
 750              		.cfi_offset 4, -16
 751              		.cfi_offset 5, -12
 752              		.cfi_offset 7, -8
 753              		.cfi_offset 14, -4
 754 0002 88B0     		sub	sp, sp, #32
 755              		.cfi_def_cfa_offset 48
 756 0004 00AF     		add	r7, sp, #0
 757              		.cfi_def_cfa_register 7
 758 0006 051C     		mov	r5, r0
 759 0008 0C1C     		mov	r4, r1
 760 000a 101C     		mov	r0, r2
 761 000c 191C     		mov	r1, r3
 762 000e FB1D     		add	r3, r7, #7
 763 0010 2A1C     		add	r2, r5, #0
 764 0012 1A70     		strb	r2, [r3]
 765 0014 BB1D     		add	r3, r7, #6
 766 0016 221C     		add	r2, r4, #0
 767 0018 1A70     		strb	r2, [r3]
 768 001a 7B1D     		add	r3, r7, #5
 769 001c 021C     		add	r2, r0, #0
 770 001e 1A70     		strb	r2, [r3]
 771 0020 3B1D     		add	r3, r7, #4
 772 0022 0A1C     		add	r2, r1, #0
 773 0024 1A70     		strb	r2, [r3]
 386:Generated_Source\PSoC4/BLE_1_hids.c ****     CYBLE_API_RESULT_T apiResult = CYBLE_ERROR_OK;
 774              		.loc 1 386 0
 775 0026 1E23     		mov	r3, #30
 776 0028 FB18     		add	r3, r7, r3
 777 002a 0022     		mov	r2, #0
 778 002c 1A80     		strh	r2, [r3]
 387:Generated_Source\PSoC4/BLE_1_hids.c ****     CYBLE_GATT_DB_ATTR_HANDLE_T locDescrHandle = CYBLE_GATT_INVALID_ATTR_HANDLE_VALUE;
 779              		.loc 1 387 0
 780 002e 1C23     		mov	r3, #28
 781 0030 FB18     		add	r3, r7, r3
 782 0032 0022     		mov	r2, #0
 783 0034 1A80     		strh	r2, [r3]
 388:Generated_Source\PSoC4/BLE_1_hids.c ****     const CYBLE_HIDSS_REPORT_T *locReport;
 389:Generated_Source\PSoC4/BLE_1_hids.c ****     CYBLE_GATT_HANDLE_VALUE_PAIR_T locHandleValuePair;
 390:Generated_Source\PSoC4/BLE_1_hids.c **** 
 391:Generated_Source\PSoC4/BLE_1_hids.c ****     if((serviceIndex >= CYBLE_HIDSS_SERVICE_COUNT) || (descrIndex >= CYBLE_HIDS_DESCR_COUNT) ||
 784              		.loc 1 391 0
 785 0036 FB1D     		add	r3, r7, #7
 786 0038 1B78     		ldrb	r3, [r3]
 787 003a 002B     		cmp	r3, #0
 788 003c 0FD1     		bne	.L48
 789              		.loc 1 391 0 is_stmt 0 discriminator 1
 790 003e 7B1D     		add	r3, r7, #5
 791 0040 1B78     		ldrb	r3, [r3]
 792 0042 022B     		cmp	r3, #2
 793 0044 0BD8     		bhi	.L48
 794              		.loc 1 391 0 discriminator 2
 795 0046 BB1D     		add	r3, r7, #6
 796 0048 1B78     		ldrb	r3, [r3]
 797 004a 072B     		cmp	r3, #7
 798 004c 07D8     		bhi	.L48
 392:Generated_Source\PSoC4/BLE_1_hids.c ****        (charIndex >= CYBLE_HIDS_CHAR_COUNT) || (charIndex < CYBLE_HIDS_REPORT_MAP) || 
ARM GAS  C:\Users\Jerry\AppData\Local\Temp\ccamILuW.s 			page 22


 799              		.loc 1 392 0 is_stmt 1
 800 004e BB1D     		add	r3, r7, #6
 801 0050 1B78     		ldrb	r3, [r3]
 802 0052 022B     		cmp	r3, #2
 803 0054 03D9     		bls	.L48
 804              		.loc 1 392 0 is_stmt 0 discriminator 1
 805 0056 BB1D     		add	r3, r7, #6
 806 0058 1B78     		ldrb	r3, [r3]
 807 005a 052B     		cmp	r3, #5
 808 005c 04D1     		bne	.L49
 809              	.L48:
 393:Generated_Source\PSoC4/BLE_1_hids.c ****        (charIndex == CYBLE_HIDS_BOOT_KYBRD_OUT_REP))
 394:Generated_Source\PSoC4/BLE_1_hids.c ****     {
 395:Generated_Source\PSoC4/BLE_1_hids.c ****         apiResult = CYBLE_ERROR_INVALID_PARAMETER;
 810              		.loc 1 395 0 is_stmt 1
 811 005e 1E23     		mov	r3, #30
 812 0060 FB18     		add	r3, r7, r3
 813 0062 0122     		mov	r2, #1
 814 0064 1A80     		strh	r2, [r3]
 815 0066 63E0     		b	.L50
 816              	.L49:
 396:Generated_Source\PSoC4/BLE_1_hids.c ****     }
 397:Generated_Source\PSoC4/BLE_1_hids.c ****     else
 398:Generated_Source\PSoC4/BLE_1_hids.c ****     {
 399:Generated_Source\PSoC4/BLE_1_hids.c ****         if(charIndex == CYBLE_HIDS_REPORT_MAP)
 817              		.loc 1 399 0
 818 0068 BB1D     		add	r3, r7, #6
 819 006a 1B78     		ldrb	r3, [r3]
 820 006c 032B     		cmp	r3, #3
 821 006e 16D1     		bne	.L51
 400:Generated_Source\PSoC4/BLE_1_hids.c ****         {
 401:Generated_Source\PSoC4/BLE_1_hids.c ****             if(descrIndex == CYBLE_HIDS_REPORT_MAP_ERRD)
 822              		.loc 1 401 0
 823 0070 7B1D     		add	r3, r7, #5
 824 0072 1B78     		ldrb	r3, [r3]
 825 0074 022B     		cmp	r3, #2
 826 0076 0DD1     		bne	.L52
 402:Generated_Source\PSoC4/BLE_1_hids.c ****             {
 403:Generated_Source\PSoC4/BLE_1_hids.c ****                 locDescrHandle = cyBle_hidss[serviceIndex].reportMapErrdHandle;
 827              		.loc 1 403 0
 828 0078 FB1D     		add	r3, r7, #7
 829 007a 1A78     		ldrb	r2, [r3]
 830 007c 1C23     		mov	r3, #28
 831 007e F918     		add	r1, r7, r3
 832 0080 4548     		ldr	r0, .L61
 833 0082 131C     		mov	r3, r2
 834 0084 9B00     		lsl	r3, r3, #2
 835 0086 9B18     		add	r3, r3, r2
 836 0088 DB00     		lsl	r3, r3, #3
 837 008a C318     		add	r3, r0, r3
 838 008c 2033     		add	r3, r3, #32
 839 008e 1B88     		ldrh	r3, [r3]
 840 0090 0B80     		strh	r3, [r1]
 841 0092 4DE0     		b	.L50
 842              	.L52:
 404:Generated_Source\PSoC4/BLE_1_hids.c ****             }
 405:Generated_Source\PSoC4/BLE_1_hids.c ****             else
ARM GAS  C:\Users\Jerry\AppData\Local\Temp\ccamILuW.s 			page 23


 406:Generated_Source\PSoC4/BLE_1_hids.c ****             {
 407:Generated_Source\PSoC4/BLE_1_hids.c ****                 apiResult = CYBLE_ERROR_INVALID_PARAMETER;
 843              		.loc 1 407 0
 844 0094 1E23     		mov	r3, #30
 845 0096 FB18     		add	r3, r7, r3
 846 0098 0122     		mov	r2, #1
 847 009a 1A80     		strh	r2, [r3]
 848 009c 48E0     		b	.L50
 849              	.L51:
 408:Generated_Source\PSoC4/BLE_1_hids.c ****             }
 409:Generated_Source\PSoC4/BLE_1_hids.c ****         }
 410:Generated_Source\PSoC4/BLE_1_hids.c ****         else /* Report characteristics */
 411:Generated_Source\PSoC4/BLE_1_hids.c ****         {
 412:Generated_Source\PSoC4/BLE_1_hids.c ****             /* Get report structure */
 413:Generated_Source\PSoC4/BLE_1_hids.c ****             if((charIndex >= CYBLE_HIDS_BOOT_KYBRD_IN_REP) && (charIndex <= CYBLE_HIDS_BOOT_MOUSE_I
 850              		.loc 1 413 0
 851 009e BB1D     		add	r3, r7, #6
 852 00a0 1B78     		ldrb	r3, [r3]
 853 00a2 032B     		cmp	r3, #3
 854 00a4 19D9     		bls	.L54
 855              		.loc 1 413 0 is_stmt 0 discriminator 1
 856 00a6 BB1D     		add	r3, r7, #6
 857 00a8 1B78     		ldrb	r3, [r3]
 858 00aa 062B     		cmp	r3, #6
 859 00ac 15D8     		bhi	.L54
 414:Generated_Source\PSoC4/BLE_1_hids.c ****             {
 415:Generated_Source\PSoC4/BLE_1_hids.c ****                 locReport = &cyBle_hidss[serviceIndex].bootReportArray[charIndex - CYBLE_HIDS_BOOT_
 860              		.loc 1 415 0 is_stmt 1
 861 00ae FB1D     		add	r3, r7, #7
 862 00b0 1978     		ldrb	r1, [r3]
 863 00b2 BB1D     		add	r3, r7, #6
 864 00b4 1B78     		ldrb	r3, [r3]
 865 00b6 043B     		sub	r3, r3, #4
 866 00b8 1A1C     		mov	r2, r3
 867 00ba 5200     		lsl	r2, r2, #1
 868 00bc D218     		add	r2, r2, r3
 869 00be 5300     		lsl	r3, r2, #1
 870 00c0 1A1C     		mov	r2, r3
 871 00c2 0B1C     		mov	r3, r1
 872 00c4 9B00     		lsl	r3, r3, #2
 873 00c6 5B18     		add	r3, r3, r1
 874 00c8 DB00     		lsl	r3, r3, #3
 875 00ca D318     		add	r3, r2, r3
 876 00cc 0833     		add	r3, r3, #8
 877 00ce 1A1C     		mov	r2, r3
 878 00d0 314B     		ldr	r3, .L61
 879 00d2 D318     		add	r3, r2, r3
 880 00d4 0433     		add	r3, r3, #4
 881 00d6 BB61     		str	r3, [r7, #24]
 882 00d8 12E0     		b	.L55
 883              	.L54:
 416:Generated_Source\PSoC4/BLE_1_hids.c ****             }
 417:Generated_Source\PSoC4/BLE_1_hids.c ****             else
 418:Generated_Source\PSoC4/BLE_1_hids.c ****             {
 419:Generated_Source\PSoC4/BLE_1_hids.c ****                 locReport = &cyBle_hidss[serviceIndex].reportArray[charIndex - CYBLE_HIDS_REPORT];
 884              		.loc 1 419 0
 885 00da FB1D     		add	r3, r7, #7
ARM GAS  C:\Users\Jerry\AppData\Local\Temp\ccamILuW.s 			page 24


 886 00dc 1A78     		ldrb	r2, [r3]
 887 00de 2E49     		ldr	r1, .L61
 888 00e0 131C     		mov	r3, r2
 889 00e2 9B00     		lsl	r3, r3, #2
 890 00e4 9B18     		add	r3, r3, r2
 891 00e6 DB00     		lsl	r3, r3, #3
 892 00e8 CB18     		add	r3, r1, r3
 893 00ea 0833     		add	r3, r3, #8
 894 00ec 1968     		ldr	r1, [r3]
 895 00ee BB1D     		add	r3, r7, #6
 896 00f0 1A78     		ldrb	r2, [r3]
 897 00f2 131C     		mov	r3, r2
 898 00f4 5B00     		lsl	r3, r3, #1
 899 00f6 9B18     		add	r3, r3, r2
 900 00f8 5B00     		lsl	r3, r3, #1
 901 00fa 2A3B     		sub	r3, r3, #42
 902 00fc CB18     		add	r3, r1, r3
 903 00fe BB61     		str	r3, [r7, #24]
 904              	.L55:
 420:Generated_Source\PSoC4/BLE_1_hids.c ****             }
 421:Generated_Source\PSoC4/BLE_1_hids.c ****             /* Get descriptor handle from report structure */
 422:Generated_Source\PSoC4/BLE_1_hids.c ****             if(descrIndex == CYBLE_HIDS_REPORT_CCCD)
 905              		.loc 1 422 0
 906 0100 7B1D     		add	r3, r7, #5
 907 0102 1B78     		ldrb	r3, [r3]
 908 0104 002B     		cmp	r3, #0
 909 0106 05D1     		bne	.L56
 423:Generated_Source\PSoC4/BLE_1_hids.c ****             {
 424:Generated_Source\PSoC4/BLE_1_hids.c ****                 locDescrHandle = locReport->cccdHandle;
 910              		.loc 1 424 0
 911 0108 1C23     		mov	r3, #28
 912 010a FB18     		add	r3, r7, r3
 913 010c BA69     		ldr	r2, [r7, #24]
 914 010e 5288     		ldrh	r2, [r2, #2]
 915 0110 1A80     		strh	r2, [r3]
 916 0112 0DE0     		b	.L50
 917              	.L56:
 425:Generated_Source\PSoC4/BLE_1_hids.c ****             }
 426:Generated_Source\PSoC4/BLE_1_hids.c ****             else if(descrIndex == CYBLE_HIDS_REPORT_RRD)
 918              		.loc 1 426 0
 919 0114 7B1D     		add	r3, r7, #5
 920 0116 1B78     		ldrb	r3, [r3]
 921 0118 012B     		cmp	r3, #1
 922 011a 05D1     		bne	.L57
 427:Generated_Source\PSoC4/BLE_1_hids.c ****             {
 428:Generated_Source\PSoC4/BLE_1_hids.c ****                 locDescrHandle = locReport->rrdHandle;
 923              		.loc 1 428 0
 924 011c 1C23     		mov	r3, #28
 925 011e FB18     		add	r3, r7, r3
 926 0120 BA69     		ldr	r2, [r7, #24]
 927 0122 9288     		ldrh	r2, [r2, #4]
 928 0124 1A80     		strh	r2, [r3]
 929 0126 03E0     		b	.L50
 930              	.L57:
 429:Generated_Source\PSoC4/BLE_1_hids.c ****             }
 430:Generated_Source\PSoC4/BLE_1_hids.c ****             else /* External Report Reference descriptor doesn't exist for report characteristic */
 431:Generated_Source\PSoC4/BLE_1_hids.c ****             {
ARM GAS  C:\Users\Jerry\AppData\Local\Temp\ccamILuW.s 			page 25


 432:Generated_Source\PSoC4/BLE_1_hids.c ****                 apiResult = CYBLE_ERROR_INVALID_PARAMETER;
 931              		.loc 1 432 0
 932 0128 1E23     		mov	r3, #30
 933 012a FB18     		add	r3, r7, r3
 934 012c 0122     		mov	r2, #1
 935 012e 1A80     		strh	r2, [r3]
 936              	.L50:
 433:Generated_Source\PSoC4/BLE_1_hids.c ****             }
 434:Generated_Source\PSoC4/BLE_1_hids.c ****         }
 435:Generated_Source\PSoC4/BLE_1_hids.c ****     }
 436:Generated_Source\PSoC4/BLE_1_hids.c ****     if(apiResult != CYBLE_ERROR_INVALID_PARAMETER)
 937              		.loc 1 436 0
 938 0130 1E23     		mov	r3, #30
 939 0132 FB18     		add	r3, r7, r3
 940 0134 1B88     		ldrh	r3, [r3]
 941 0136 012B     		cmp	r3, #1
 942 0138 26D0     		beq	.L58
 437:Generated_Source\PSoC4/BLE_1_hids.c ****     {
 438:Generated_Source\PSoC4/BLE_1_hids.c ****         if(locDescrHandle == CYBLE_GATT_INVALID_ATTR_HANDLE_VALUE)
 943              		.loc 1 438 0
 944 013a 1C23     		mov	r3, #28
 945 013c FB18     		add	r3, r7, r3
 946 013e 1B88     		ldrh	r3, [r3]
 947 0140 002B     		cmp	r3, #0
 948 0142 04D1     		bne	.L59
 439:Generated_Source\PSoC4/BLE_1_hids.c ****         {
 440:Generated_Source\PSoC4/BLE_1_hids.c ****             apiResult = CYBLE_ERROR_GATT_DB_INVALID_ATTR_HANDLE;
 949              		.loc 1 440 0
 950 0144 1E23     		mov	r3, #30
 951 0146 FB18     		add	r3, r7, r3
 952 0148 1322     		mov	r2, #19
 953 014a 1A80     		strh	r2, [r3]
 954 014c 1CE0     		b	.L58
 955              	.L59:
 441:Generated_Source\PSoC4/BLE_1_hids.c ****         }
 442:Generated_Source\PSoC4/BLE_1_hids.c ****         else
 443:Generated_Source\PSoC4/BLE_1_hids.c ****         {
 444:Generated_Source\PSoC4/BLE_1_hids.c ****             /* Read value from database */
 445:Generated_Source\PSoC4/BLE_1_hids.c ****             locHandleValuePair.attrHandle = locDescrHandle;
 956              		.loc 1 445 0
 957 014e 0C23     		mov	r3, #12
 958 0150 FB18     		add	r3, r7, r3
 959 0152 1C22     		mov	r2, #28
 960 0154 BA18     		add	r2, r7, r2
 961 0156 1288     		ldrh	r2, [r2]
 962 0158 1A81     		strh	r2, [r3, #8]
 446:Generated_Source\PSoC4/BLE_1_hids.c ****             locHandleValuePair.value.len = attrSize;
 963              		.loc 1 446 0
 964 015a 3B1D     		add	r3, r7, #4
 965 015c 1B78     		ldrb	r3, [r3]
 966 015e 9AB2     		uxth	r2, r3
 967 0160 0C23     		mov	r3, #12
 968 0162 FB18     		add	r3, r7, r3
 969 0164 9A80     		strh	r2, [r3, #4]
 447:Generated_Source\PSoC4/BLE_1_hids.c ****             locHandleValuePair.value.val = attrValue;
 970              		.loc 1 447 0
 971 0166 0C23     		mov	r3, #12
ARM GAS  C:\Users\Jerry\AppData\Local\Temp\ccamILuW.s 			page 26


 972 0168 FB18     		add	r3, r7, r3
 973 016a 3A6B     		ldr	r2, [r7, #48]
 974 016c 1A60     		str	r2, [r3]
 448:Generated_Source\PSoC4/BLE_1_hids.c ****             if(CYBLE_GATT_ERR_NONE !=
 449:Generated_Source\PSoC4/BLE_1_hids.c ****                 CyBle_GattsReadAttributeValue(&locHandleValuePair, NULL, CYBLE_GATT_DB_LOCALLY_INIT
 975              		.loc 1 449 0
 976 016e 0C23     		mov	r3, #12
 977 0170 FB18     		add	r3, r7, r3
 978 0172 181C     		mov	r0, r3
 979 0174 0021     		mov	r1, #0
 980 0176 0022     		mov	r2, #0
 981 0178 FFF7FEFF 		bl	CyBle_GattsReadAttributeValue
 982 017c 031E     		sub	r3, r0, #0
 448:Generated_Source\PSoC4/BLE_1_hids.c ****             if(CYBLE_GATT_ERR_NONE !=
 983              		.loc 1 448 0
 984 017e 03D0     		beq	.L58
 450:Generated_Source\PSoC4/BLE_1_hids.c ****             {
 451:Generated_Source\PSoC4/BLE_1_hids.c ****                 apiResult = CYBLE_ERROR_INVALID_PARAMETER;
 985              		.loc 1 451 0
 986 0180 1E23     		mov	r3, #30
 987 0182 FB18     		add	r3, r7, r3
 988 0184 0122     		mov	r2, #1
 989 0186 1A80     		strh	r2, [r3]
 990              	.L58:
 452:Generated_Source\PSoC4/BLE_1_hids.c ****             }
 453:Generated_Source\PSoC4/BLE_1_hids.c ****         }
 454:Generated_Source\PSoC4/BLE_1_hids.c ****     }
 455:Generated_Source\PSoC4/BLE_1_hids.c ****     return (apiResult);
 991              		.loc 1 455 0
 992 0188 1E23     		mov	r3, #30
 993 018a FB18     		add	r3, r7, r3
 994 018c 1B88     		ldrh	r3, [r3]
 456:Generated_Source\PSoC4/BLE_1_hids.c **** }
 995              		.loc 1 456 0
 996 018e 181C     		mov	r0, r3
 997 0190 BD46     		mov	sp, r7
 998 0192 08B0     		add	sp, sp, #32
 999              		@ sp needed
 1000 0194 B0BD     		pop	{r4, r5, r7, pc}
 1001              	.L62:
 1002 0196 C046     		.align	2
 1003              	.L61:
 1004 0198 00000000 		.word	cyBle_hidss
 1005              		.cfi_endproc
 1006              	.LFE6:
 1007              		.size	CyBle_HidssGetCharacteristicDescriptor, .-CyBle_HidssGetCharacteristicDescriptor
 1008              		.section	.text.CyBle_HidssCccdWriteEventHandler,"ax",%progbits
 1009              		.align	2
 1010              		.code	16
 1011              		.thumb_func
 1012              		.type	CyBle_HidssCccdWriteEventHandler, %function
 1013              	CyBle_HidssCccdWriteEventHandler:
 1014              	.LFB7:
 457:Generated_Source\PSoC4/BLE_1_hids.c **** 
 458:Generated_Source\PSoC4/BLE_1_hids.c **** 
 459:Generated_Source\PSoC4/BLE_1_hids.c **** /****************************************************************************** 
 460:Generated_Source\PSoC4/BLE_1_hids.c **** * Function Name: CyBle_HidssCccdWriteEventHandler
ARM GAS  C:\Users\Jerry\AppData\Local\Temp\ccamILuW.s 			page 27


 461:Generated_Source\PSoC4/BLE_1_hids.c **** ***************************************************************************//**
 462:Generated_Source\PSoC4/BLE_1_hids.c **** * 
 463:Generated_Source\PSoC4/BLE_1_hids.c **** *  Handles the Write Request Event of the Client Characteristic Configuration
 464:Generated_Source\PSoC4/BLE_1_hids.c **** *  descriptor.
 465:Generated_Source\PSoC4/BLE_1_hids.c **** * 
 466:Generated_Source\PSoC4/BLE_1_hids.c **** *  \param serviceIndex: The index of the service instance.
 467:Generated_Source\PSoC4/BLE_1_hids.c **** *  \param charIndex: The index of the characteristic.
 468:Generated_Source\PSoC4/BLE_1_hids.c **** *  \param eventParam: The pointer to the data structure specified by the event.
 469:Generated_Source\PSoC4/BLE_1_hids.c **** * 
 470:Generated_Source\PSoC4/BLE_1_hids.c **** * \return
 471:Generated_Source\PSoC4/BLE_1_hids.c **** *  uint32 eventCode: The event code to be send to application.
 472:Generated_Source\PSoC4/BLE_1_hids.c **** * 
 473:Generated_Source\PSoC4/BLE_1_hids.c **** ******************************************************************************/
 474:Generated_Source\PSoC4/BLE_1_hids.c **** static uint32 CyBle_HidssCccdWriteEventHandler(uint8 serviceIndex, const CYBLE_GATTS_WRITE_REQ_PARA
 475:Generated_Source\PSoC4/BLE_1_hids.c **** {
 1015              		.loc 1 475 0
 1016              		.cfi_startproc
 1017 0000 80B5     		push	{r7, lr}
 1018              		.cfi_def_cfa_offset 8
 1019              		.cfi_offset 7, -8
 1020              		.cfi_offset 14, -4
 1021 0002 84B0     		sub	sp, sp, #16
 1022              		.cfi_def_cfa_offset 24
 1023 0004 00AF     		add	r7, sp, #0
 1024              		.cfi_def_cfa_register 7
 1025 0006 021C     		mov	r2, r0
 1026 0008 3960     		str	r1, [r7]
 1027 000a FB1D     		add	r3, r7, #7
 1028 000c 1A70     		strb	r2, [r3]
 476:Generated_Source\PSoC4/BLE_1_hids.c ****     uint32 eventCode;
 477:Generated_Source\PSoC4/BLE_1_hids.c **** 
 478:Generated_Source\PSoC4/BLE_1_hids.c ****     if(CYBLE_IS_NOTIFICATION_ENABLED_IN_PTR(eventParam->handleValPair.value.val))
 1029              		.loc 1 478 0
 1030 000e 3B68     		ldr	r3, [r7]
 1031 0010 5B68     		ldr	r3, [r3, #4]
 1032 0012 181C     		mov	r0, r3
 1033 0014 FFF7FEFF 		bl	CyBle_Get16ByPtr
 1034 0018 031C     		mov	r3, r0
 1035 001a 1A1C     		mov	r2, r3
 1036 001c 0123     		mov	r3, #1
 1037 001e 1340     		and	r3, r2
 1038 0020 9BB2     		uxth	r3, r3
 1039 0022 002B     		cmp	r3, #0
 1040 0024 03D0     		beq	.L64
 479:Generated_Source\PSoC4/BLE_1_hids.c ****     {
 480:Generated_Source\PSoC4/BLE_1_hids.c ****         eventCode = (uint32)CYBLE_EVT_HIDSS_NOTIFICATION_ENABLED;
 1041              		.loc 1 480 0
 1042 0026 C323     		mov	r3, #195
 1043 0028 5B00     		lsl	r3, r3, #1
 1044 002a FB60     		str	r3, [r7, #12]
 1045 002c 02E0     		b	.L65
 1046              	.L64:
 481:Generated_Source\PSoC4/BLE_1_hids.c ****     }
 482:Generated_Source\PSoC4/BLE_1_hids.c ****     else
 483:Generated_Source\PSoC4/BLE_1_hids.c ****     {
 484:Generated_Source\PSoC4/BLE_1_hids.c ****         eventCode = (uint32)CYBLE_EVT_HIDSS_NOTIFICATION_DISABLED;
 1047              		.loc 1 484 0
ARM GAS  C:\Users\Jerry\AppData\Local\Temp\ccamILuW.s 			page 28


 1048 002e 8823     		mov	r3, #136
 1049 0030 FF33     		add	r3, r3, #255
 1050 0032 FB60     		str	r3, [r7, #12]
 1051              	.L65:
 485:Generated_Source\PSoC4/BLE_1_hids.c ****     }
 486:Generated_Source\PSoC4/BLE_1_hids.c ****     cyBle_eventHandlerFlag &= (uint8)~CYBLE_CALLBACK;
 1052              		.loc 1 486 0
 1053 0034 0B4B     		ldr	r3, .L68
 1054 0036 1B78     		ldrb	r3, [r3]
 1055 0038 DBB2     		uxtb	r3, r3
 1056 003a 0122     		mov	r2, #1
 1057 003c 9343     		bic	r3, r2
 1058 003e DAB2     		uxtb	r2, r3
 1059 0040 084B     		ldr	r3, .L68
 1060 0042 1A70     		strb	r2, [r3]
 487:Generated_Source\PSoC4/BLE_1_hids.c ****     
 488:Generated_Source\PSoC4/BLE_1_hids.c **** #if((CYBLE_GAP_ROLE_PERIPHERAL || CYBLE_GAP_ROLE_CENTRAL) && (CYBLE_BONDING_REQUIREMENT == CYBLE_BO
 489:Generated_Source\PSoC4/BLE_1_hids.c ****     /* Set flag to store bonding data to flash */
 490:Generated_Source\PSoC4/BLE_1_hids.c ****     if(cyBle_peerBonding == CYBLE_GAP_BONDING)
 1061              		.loc 1 490 0
 1062 0044 084B     		ldr	r3, .L68+4
 1063 0046 1B78     		ldrb	r3, [r3]
 1064 0048 012B     		cmp	r3, #1
 1065 004a 06D1     		bne	.L66
 491:Generated_Source\PSoC4/BLE_1_hids.c ****     {
 492:Generated_Source\PSoC4/BLE_1_hids.c ****         cyBle_pendingFlashWrite |= CYBLE_PENDING_CCCD_FLASH_WRITE_BIT;
 1066              		.loc 1 492 0
 1067 004c 074B     		ldr	r3, .L68+8
 1068 004e 1B78     		ldrb	r3, [r3]
 1069 0050 0222     		mov	r2, #2
 1070 0052 1343     		orr	r3, r2
 1071 0054 DAB2     		uxtb	r2, r3
 1072 0056 054B     		ldr	r3, .L68+8
 1073 0058 1A70     		strb	r2, [r3]
 1074              	.L66:
 493:Generated_Source\PSoC4/BLE_1_hids.c ****     }
 494:Generated_Source\PSoC4/BLE_1_hids.c **** #endif /* (CYBLE_BONDING_REQUIREMENT == CYBLE_BONDING_YES) */
 495:Generated_Source\PSoC4/BLE_1_hids.c **** 
 496:Generated_Source\PSoC4/BLE_1_hids.c ****     return(eventCode);
 1075              		.loc 1 496 0
 1076 005a FB68     		ldr	r3, [r7, #12]
 497:Generated_Source\PSoC4/BLE_1_hids.c **** }
 1077              		.loc 1 497 0
 1078 005c 181C     		mov	r0, r3
 1079 005e BD46     		mov	sp, r7
 1080 0060 04B0     		add	sp, sp, #16
 1081              		@ sp needed
 1082 0062 80BD     		pop	{r7, pc}
 1083              	.L69:
 1084              		.align	2
 1085              	.L68:
 1086 0064 00000000 		.word	cyBle_eventHandlerFlag
 1087 0068 00000000 		.word	cyBle_peerBonding
 1088 006c 00000000 		.word	cyBle_pendingFlashWrite
 1089              		.cfi_endproc
 1090              	.LFE7:
 1091              		.size	CyBle_HidssCccdWriteEventHandler, .-CyBle_HidssCccdWriteEventHandler
ARM GAS  C:\Users\Jerry\AppData\Local\Temp\ccamILuW.s 			page 29


 1092              		.section	.text.CyBle_HidssWriteEventHandler,"ax",%progbits
 1093              		.align	2
 1094              		.global	CyBle_HidssWriteEventHandler
 1095              		.code	16
 1096              		.thumb_func
 1097              		.type	CyBle_HidssWriteEventHandler, %function
 1098              	CyBle_HidssWriteEventHandler:
 1099              	.LFB8:
 498:Generated_Source\PSoC4/BLE_1_hids.c **** 
 499:Generated_Source\PSoC4/BLE_1_hids.c **** 
 500:Generated_Source\PSoC4/BLE_1_hids.c **** /****************************************************************************** 
 501:Generated_Source\PSoC4/BLE_1_hids.c **** * Function Name: CyBle_HidssWriteEventHandler
 502:Generated_Source\PSoC4/BLE_1_hids.c **** ***************************************************************************//**
 503:Generated_Source\PSoC4/BLE_1_hids.c **** * 
 504:Generated_Source\PSoC4/BLE_1_hids.c **** *  Handles the Write Request Event.
 505:Generated_Source\PSoC4/BLE_1_hids.c **** * 
 506:Generated_Source\PSoC4/BLE_1_hids.c **** *  \param eventParam: The pointer to the data structure specified by the event.
 507:Generated_Source\PSoC4/BLE_1_hids.c **** * 
 508:Generated_Source\PSoC4/BLE_1_hids.c **** * \return
 509:Generated_Source\PSoC4/BLE_1_hids.c **** *  Return value is of type CYBLE_GATT_ERR_CODE_T.
 510:Generated_Source\PSoC4/BLE_1_hids.c **** *   * CYBLE_GATT_ERR_NONE - Write is successful.
 511:Generated_Source\PSoC4/BLE_1_hids.c **** * 
 512:Generated_Source\PSoC4/BLE_1_hids.c **** ******************************************************************************/
 513:Generated_Source\PSoC4/BLE_1_hids.c **** CYBLE_GATT_ERR_CODE_T CyBle_HidssWriteEventHandler(CYBLE_GATTS_WRITE_REQ_PARAM_T *eventParam)
 514:Generated_Source\PSoC4/BLE_1_hids.c **** {
 1100              		.loc 1 514 0
 1101              		.cfi_startproc
 1102 0000 90B5     		push	{r4, r7, lr}
 1103              		.cfi_def_cfa_offset 12
 1104              		.cfi_offset 4, -12
 1105              		.cfi_offset 7, -8
 1106              		.cfi_offset 14, -4
 1107 0002 89B0     		sub	sp, sp, #36
 1108              		.cfi_def_cfa_offset 48
 1109 0004 00AF     		add	r7, sp, #0
 1110              		.cfi_def_cfa_register 7
 1111 0006 7860     		str	r0, [r7, #4]
 515:Generated_Source\PSoC4/BLE_1_hids.c ****     CYBLE_GATT_ERR_CODE_T gattErr = CYBLE_GATT_ERR_NONE;
 1112              		.loc 1 515 0
 1113 0008 1F23     		mov	r3, #31
 1114 000a FB18     		add	r3, r7, r3
 1115 000c 0022     		mov	r2, #0
 1116 000e 1A70     		strb	r2, [r3]
 516:Generated_Source\PSoC4/BLE_1_hids.c ****     uint8 locServIndex = 0u;
 1117              		.loc 1 516 0
 1118 0010 1E23     		mov	r3, #30
 1119 0012 FB18     		add	r3, r7, r3
 1120 0014 0022     		mov	r2, #0
 1121 0016 1A70     		strb	r2, [r3]
 517:Generated_Source\PSoC4/BLE_1_hids.c ****     uint8 reportIndex;
 518:Generated_Source\PSoC4/BLE_1_hids.c ****     CYBLE_HIDS_CHAR_INDEX_T locCharIndex;
 519:Generated_Source\PSoC4/BLE_1_hids.c ****     CYBLE_HIDS_CHAR_VALUE_T locCharValue;
 520:Generated_Source\PSoC4/BLE_1_hids.c ****     uint32 eventCode = 0u;
 1122              		.loc 1 520 0
 1123 0018 0023     		mov	r3, #0
 1124 001a BB61     		str	r3, [r7, #24]
 521:Generated_Source\PSoC4/BLE_1_hids.c **** 
ARM GAS  C:\Users\Jerry\AppData\Local\Temp\ccamILuW.s 			page 30


 522:Generated_Source\PSoC4/BLE_1_hids.c ****     if(NULL != CyBle_HidsApplCallback)
 1125              		.loc 1 522 0
 1126 001c 9C4B     		ldr	r3, .L96
 1127 001e 1B68     		ldr	r3, [r3]
 1128 0020 002B     		cmp	r3, #0
 1129 0022 00D1     		bne	.LCB1005
 1130 0024 EBE1     		b	.L71	@long jump
 1131              	.LCB1005:
 523:Generated_Source\PSoC4/BLE_1_hids.c ****     {
 524:Generated_Source\PSoC4/BLE_1_hids.c ****         locCharValue.connHandle = eventParam->connHandle;
 1132              		.loc 1 524 0
 1133 0026 0C23     		mov	r3, #12
 1134 0028 FB18     		add	r3, r7, r3
 1135 002a 7A68     		ldr	r2, [r7, #4]
 1136 002c 1288     		ldrh	r2, [r2]
 1137 002e 1A80     		strh	r2, [r3]
 525:Generated_Source\PSoC4/BLE_1_hids.c ****         locCharValue.value = NULL;
 1138              		.loc 1 525 0
 1139 0030 0C23     		mov	r3, #12
 1140 0032 FB18     		add	r3, r7, r3
 1141 0034 0022     		mov	r2, #0
 1142 0036 5A60     		str	r2, [r3, #4]
 1143              	.L94:
 526:Generated_Source\PSoC4/BLE_1_hids.c ****         do
 527:Generated_Source\PSoC4/BLE_1_hids.c ****         {
 528:Generated_Source\PSoC4/BLE_1_hids.c ****             locCharValue.serviceIndex = locServIndex;
 1144              		.loc 1 528 0
 1145 0038 0C23     		mov	r3, #12
 1146 003a FB18     		add	r3, r7, r3
 1147 003c 1E22     		mov	r2, #30
 1148 003e BA18     		add	r2, r7, r2
 1149 0040 1278     		ldrb	r2, [r2]
 1150 0042 9A70     		strb	r2, [r3, #2]
 529:Generated_Source\PSoC4/BLE_1_hids.c ****             /* Protocol Mode characteristic write request */
 530:Generated_Source\PSoC4/BLE_1_hids.c ****             if(eventParam->handleValPair.attrHandle == cyBle_hidss[locServIndex].protocolModeHandle
 1151              		.loc 1 530 0
 1152 0044 7B68     		ldr	r3, [r7, #4]
 1153 0046 9989     		ldrh	r1, [r3, #12]
 1154 0048 1E23     		mov	r3, #30
 1155 004a FB18     		add	r3, r7, r3
 1156 004c 1A78     		ldrb	r2, [r3]
 1157 004e 9148     		ldr	r0, .L96+4
 1158 0050 131C     		mov	r3, r2
 1159 0052 9B00     		lsl	r3, r3, #2
 1160 0054 9B18     		add	r3, r3, r2
 1161 0056 DB00     		lsl	r3, r3, #3
 1162 0058 C318     		add	r3, r0, r3
 1163 005a 5B88     		ldrh	r3, [r3, #2]
 1164 005c 9942     		cmp	r1, r3
 1165 005e 29D1     		bne	.L72
 531:Generated_Source\PSoC4/BLE_1_hids.c ****             {
 532:Generated_Source\PSoC4/BLE_1_hids.c ****                 locCharValue.charIndex = CYBLE_HIDS_PROTOCOL_MODE;
 1166              		.loc 1 532 0
 1167 0060 0C23     		mov	r3, #12
 1168 0062 FB18     		add	r3, r7, r3
 1169 0064 0022     		mov	r2, #0
 1170 0066 DA70     		strb	r2, [r3, #3]
ARM GAS  C:\Users\Jerry\AppData\Local\Temp\ccamILuW.s 			page 31


 533:Generated_Source\PSoC4/BLE_1_hids.c ****                 if(eventParam->handleValPair.value.len == CYBLE_HIDS_PM_CHAR_LEN)
 1171              		.loc 1 533 0
 1172 0068 7B68     		ldr	r3, [r7, #4]
 1173 006a 1B89     		ldrh	r3, [r3, #8]
 1174 006c 012B     		cmp	r3, #1
 1175 006e 00D0     		beq	.LCB1044
 1176 0070 95E1     		b	.L77	@long jump
 1177              	.LCB1044:
 534:Generated_Source\PSoC4/BLE_1_hids.c ****                 {
 535:Generated_Source\PSoC4/BLE_1_hids.c ****                     switch(eventParam->handleValPair.value.val[0u])
 1178              		.loc 1 535 0
 1179 0072 7B68     		ldr	r3, [r7, #4]
 1180 0074 5B68     		ldr	r3, [r3, #4]
 1181 0076 1B78     		ldrb	r3, [r3]
 1182 0078 002B     		cmp	r3, #0
 1183 007a 02D0     		beq	.L75
 1184 007c 012B     		cmp	r3, #1
 1185 007e 0CD0     		beq	.L76
 536:Generated_Source\PSoC4/BLE_1_hids.c ****                     {
 537:Generated_Source\PSoC4/BLE_1_hids.c ****                         case CYBLE_HIDS_PROTOCOL_MODE_BOOT:
 538:Generated_Source\PSoC4/BLE_1_hids.c ****                             eventCode = (uint32)CYBLE_EVT_HIDSS_BOOT_MODE_ENTER;
 539:Generated_Source\PSoC4/BLE_1_hids.c ****                             cyBle_eventHandlerFlag &= (uint8)~CYBLE_CALLBACK;
 540:Generated_Source\PSoC4/BLE_1_hids.c ****                             break;
 541:Generated_Source\PSoC4/BLE_1_hids.c ****                         case CYBLE_HIDS_PROTOCOL_MODE_REPORT:
 542:Generated_Source\PSoC4/BLE_1_hids.c ****                             eventCode = (uint32)CYBLE_EVT_HIDSS_REPORT_MODE_ENTER;
 543:Generated_Source\PSoC4/BLE_1_hids.c ****                             cyBle_eventHandlerFlag &= (uint8)~CYBLE_CALLBACK;
 544:Generated_Source\PSoC4/BLE_1_hids.c ****                             break;
 545:Generated_Source\PSoC4/BLE_1_hids.c ****                         default:    /* Reserved for Future Use. */
 546:Generated_Source\PSoC4/BLE_1_hids.c ****                             break;
 1186              		.loc 1 546 0
 1187 0080 17E0     		b	.L73
 1188              	.L75:
 538:Generated_Source\PSoC4/BLE_1_hids.c ****                             cyBle_eventHandlerFlag &= (uint8)~CYBLE_CALLBACK;
 1189              		.loc 1 538 0
 1190 0082 C423     		mov	r3, #196
 1191 0084 5B00     		lsl	r3, r3, #1
 1192 0086 BB61     		str	r3, [r7, #24]
 539:Generated_Source\PSoC4/BLE_1_hids.c ****                             break;
 1193              		.loc 1 539 0
 1194 0088 834B     		ldr	r3, .L96+8
 1195 008a 1B78     		ldrb	r3, [r3]
 1196 008c DBB2     		uxtb	r3, r3
 1197 008e 0122     		mov	r2, #1
 1198 0090 9343     		bic	r3, r2
 1199 0092 DAB2     		uxtb	r2, r3
 1200 0094 804B     		ldr	r3, .L96+8
 1201 0096 1A70     		strb	r2, [r3]
 540:Generated_Source\PSoC4/BLE_1_hids.c ****                         case CYBLE_HIDS_PROTOCOL_MODE_REPORT:
 1202              		.loc 1 540 0
 1203 0098 0BE0     		b	.L73
 1204              	.L76:
 542:Generated_Source\PSoC4/BLE_1_hids.c ****                             cyBle_eventHandlerFlag &= (uint8)~CYBLE_CALLBACK;
 1205              		.loc 1 542 0
 1206 009a 8A23     		mov	r3, #138
 1207 009c FF33     		add	r3, r3, #255
 1208 009e BB61     		str	r3, [r7, #24]
 543:Generated_Source\PSoC4/BLE_1_hids.c ****                             break;
ARM GAS  C:\Users\Jerry\AppData\Local\Temp\ccamILuW.s 			page 32


 1209              		.loc 1 543 0
 1210 00a0 7D4B     		ldr	r3, .L96+8
 1211 00a2 1B78     		ldrb	r3, [r3]
 1212 00a4 DBB2     		uxtb	r3, r3
 1213 00a6 0122     		mov	r2, #1
 1214 00a8 9343     		bic	r3, r2
 1215 00aa DAB2     		uxtb	r2, r3
 1216 00ac 7A4B     		ldr	r3, .L96+8
 1217 00ae 1A70     		strb	r2, [r3]
 544:Generated_Source\PSoC4/BLE_1_hids.c ****                         default:    /* Reserved for Future Use. */
 1218              		.loc 1 544 0
 1219 00b0 C046     		mov	r8, r8
 1220              	.L73:
 1221 00b2 74E1     		b	.L77
 1222              	.L72:
 547:Generated_Source\PSoC4/BLE_1_hids.c ****                     }
 548:Generated_Source\PSoC4/BLE_1_hids.c ****                 }
 549:Generated_Source\PSoC4/BLE_1_hids.c ****             }
 550:Generated_Source\PSoC4/BLE_1_hids.c ****             /* Control Point characteristic write request */
 551:Generated_Source\PSoC4/BLE_1_hids.c ****             else if(eventParam->handleValPair.attrHandle == cyBle_hidss[locServIndex].controlPointH
 1223              		.loc 1 551 0
 1224 00b4 7B68     		ldr	r3, [r7, #4]
 1225 00b6 9989     		ldrh	r1, [r3, #12]
 1226 00b8 1E23     		mov	r3, #30
 1227 00ba FB18     		add	r3, r7, r3
 1228 00bc 1A78     		ldrb	r2, [r3]
 1229 00be 7548     		ldr	r0, .L96+4
 1230 00c0 131C     		mov	r3, r2
 1231 00c2 9B00     		lsl	r3, r3, #2
 1232 00c4 9B18     		add	r3, r3, r2
 1233 00c6 DB00     		lsl	r3, r3, #3
 1234 00c8 C318     		add	r3, r0, r3
 1235 00ca 2033     		add	r3, r3, #32
 1236 00cc 9B88     		ldrh	r3, [r3, #4]
 1237 00ce 9942     		cmp	r1, r3
 1238 00d0 29D1     		bne	.L78
 552:Generated_Source\PSoC4/BLE_1_hids.c ****             {
 553:Generated_Source\PSoC4/BLE_1_hids.c ****                 locCharValue.charIndex = CYBLE_HIDS_CONTROL_POINT;
 1239              		.loc 1 553 0
 1240 00d2 0C23     		mov	r3, #12
 1241 00d4 FB18     		add	r3, r7, r3
 1242 00d6 0222     		mov	r2, #2
 1243 00d8 DA70     		strb	r2, [r3, #3]
 554:Generated_Source\PSoC4/BLE_1_hids.c ****                 if(eventParam->handleValPair.value.len == CYBLE_HIDS_CP_CHAR_LEN)
 1244              		.loc 1 554 0
 1245 00da 7B68     		ldr	r3, [r7, #4]
 1246 00dc 1B89     		ldrh	r3, [r3, #8]
 1247 00de 012B     		cmp	r3, #1
 1248 00e0 00D0     		beq	.LCB1111
 1249 00e2 5CE1     		b	.L77	@long jump
 1250              	.LCB1111:
 555:Generated_Source\PSoC4/BLE_1_hids.c ****                 {
 556:Generated_Source\PSoC4/BLE_1_hids.c ****                     switch(eventParam->handleValPair.value.val[0u])
 1251              		.loc 1 556 0
 1252 00e4 7B68     		ldr	r3, [r7, #4]
 1253 00e6 5B68     		ldr	r3, [r3, #4]
 1254 00e8 1B78     		ldrb	r3, [r3]
ARM GAS  C:\Users\Jerry\AppData\Local\Temp\ccamILuW.s 			page 33


 1255 00ea 002B     		cmp	r3, #0
 1256 00ec 02D0     		beq	.L81
 1257 00ee 012B     		cmp	r3, #1
 1258 00f0 0CD0     		beq	.L82
 557:Generated_Source\PSoC4/BLE_1_hids.c ****                     {
 558:Generated_Source\PSoC4/BLE_1_hids.c ****                         case CYBLE_HIDS_CP_SUSPEND:
 559:Generated_Source\PSoC4/BLE_1_hids.c ****                             eventCode = (uint32)CYBLE_EVT_HIDSS_SUSPEND;
 560:Generated_Source\PSoC4/BLE_1_hids.c ****                             cyBle_eventHandlerFlag &= (uint8)~CYBLE_CALLBACK;
 561:Generated_Source\PSoC4/BLE_1_hids.c ****                             break;
 562:Generated_Source\PSoC4/BLE_1_hids.c ****                         case CYBLE_HIDS_CP_EXIT_SUSPEND:
 563:Generated_Source\PSoC4/BLE_1_hids.c ****                             eventCode = (uint32)CYBLE_EVT_HIDSS_EXIT_SUSPEND;
 564:Generated_Source\PSoC4/BLE_1_hids.c ****                             cyBle_eventHandlerFlag &= (uint8)~CYBLE_CALLBACK;
 565:Generated_Source\PSoC4/BLE_1_hids.c ****                             break;
 566:Generated_Source\PSoC4/BLE_1_hids.c ****                         default:    /* Reserved for Future Use. */
 567:Generated_Source\PSoC4/BLE_1_hids.c ****                             break;
 1259              		.loc 1 567 0
 1260 00f2 17E0     		b	.L79
 1261              	.L81:
 559:Generated_Source\PSoC4/BLE_1_hids.c ****                             cyBle_eventHandlerFlag &= (uint8)~CYBLE_CALLBACK;
 1262              		.loc 1 559 0
 1263 00f4 C523     		mov	r3, #197
 1264 00f6 5B00     		lsl	r3, r3, #1
 1265 00f8 BB61     		str	r3, [r7, #24]
 560:Generated_Source\PSoC4/BLE_1_hids.c ****                             break;
 1266              		.loc 1 560 0
 1267 00fa 674B     		ldr	r3, .L96+8
 1268 00fc 1B78     		ldrb	r3, [r3]
 1269 00fe DBB2     		uxtb	r3, r3
 1270 0100 0122     		mov	r2, #1
 1271 0102 9343     		bic	r3, r2
 1272 0104 DAB2     		uxtb	r2, r3
 1273 0106 644B     		ldr	r3, .L96+8
 1274 0108 1A70     		strb	r2, [r3]
 561:Generated_Source\PSoC4/BLE_1_hids.c ****                         case CYBLE_HIDS_CP_EXIT_SUSPEND:
 1275              		.loc 1 561 0
 1276 010a 0BE0     		b	.L79
 1277              	.L82:
 563:Generated_Source\PSoC4/BLE_1_hids.c ****                             cyBle_eventHandlerFlag &= (uint8)~CYBLE_CALLBACK;
 1278              		.loc 1 563 0
 1279 010c 8C23     		mov	r3, #140
 1280 010e FF33     		add	r3, r3, #255
 1281 0110 BB61     		str	r3, [r7, #24]
 564:Generated_Source\PSoC4/BLE_1_hids.c ****                             break;
 1282              		.loc 1 564 0
 1283 0112 614B     		ldr	r3, .L96+8
 1284 0114 1B78     		ldrb	r3, [r3]
 1285 0116 DBB2     		uxtb	r3, r3
 1286 0118 0122     		mov	r2, #1
 1287 011a 9343     		bic	r3, r2
 1288 011c DAB2     		uxtb	r2, r3
 1289 011e 5E4B     		ldr	r3, .L96+8
 1290 0120 1A70     		strb	r2, [r3]
 565:Generated_Source\PSoC4/BLE_1_hids.c ****                         default:    /* Reserved for Future Use. */
 1291              		.loc 1 565 0
 1292 0122 C046     		mov	r8, r8
 1293              	.L79:
 1294 0124 3BE1     		b	.L77
ARM GAS  C:\Users\Jerry\AppData\Local\Temp\ccamILuW.s 			page 34


 1295              	.L78:
 568:Generated_Source\PSoC4/BLE_1_hids.c ****                     }
 569:Generated_Source\PSoC4/BLE_1_hids.c ****                 }
 570:Generated_Source\PSoC4/BLE_1_hids.c ****             }
 571:Generated_Source\PSoC4/BLE_1_hids.c ****             else if(eventParam->handleValPair.attrHandle ==
 1296              		.loc 1 571 0
 1297 0126 7B68     		ldr	r3, [r7, #4]
 1298 0128 9989     		ldrh	r1, [r3, #12]
 572:Generated_Source\PSoC4/BLE_1_hids.c ****                         cyBle_hidss[locServIndex].bootReportArray[CYBLE_HIDS_BOOT_KYBRD_IN_REP_INDX
 1299              		.loc 1 572 0
 1300 012a 1E23     		mov	r3, #30
 1301 012c FB18     		add	r3, r7, r3
 1302 012e 1A78     		ldrb	r2, [r3]
 1303 0130 5848     		ldr	r0, .L96+4
 1304 0132 131C     		mov	r3, r2
 1305 0134 9B00     		lsl	r3, r3, #2
 1306 0136 9B18     		add	r3, r3, r2
 1307 0138 DB00     		lsl	r3, r3, #3
 1308 013a C318     		add	r3, r0, r3
 1309 013c 0833     		add	r3, r3, #8
 1310 013e 9B88     		ldrh	r3, [r3, #4]
 571:Generated_Source\PSoC4/BLE_1_hids.c ****                         cyBle_hidss[locServIndex].bootReportArray[CYBLE_HIDS_BOOT_KYBRD_IN_REP_INDX
 1311              		.loc 1 571 0
 1312 0140 9942     		cmp	r1, r3
 1313 0142 14D1     		bne	.L83
 573:Generated_Source\PSoC4/BLE_1_hids.c ****             {
 574:Generated_Source\PSoC4/BLE_1_hids.c ****                 locCharValue.charIndex = CYBLE_HIDS_BOOT_KYBRD_IN_REP;
 1314              		.loc 1 574 0
 1315 0144 0C23     		mov	r3, #12
 1316 0146 FB18     		add	r3, r7, r3
 1317 0148 0422     		mov	r2, #4
 1318 014a DA70     		strb	r2, [r3, #3]
 575:Generated_Source\PSoC4/BLE_1_hids.c ****                 locCharValue.value = &eventParam->handleValPair.value;
 1319              		.loc 1 575 0
 1320 014c 7B68     		ldr	r3, [r7, #4]
 1321 014e 1A1D     		add	r2, r3, #4
 1322 0150 0C23     		mov	r3, #12
 1323 0152 FB18     		add	r3, r7, r3
 1324 0154 5A60     		str	r2, [r3, #4]
 576:Generated_Source\PSoC4/BLE_1_hids.c ****                 eventCode = (uint32)CYBLE_EVT_HIDSS_REPORT_CHAR_WRITE;
 1325              		.loc 1 576 0
 1326 0156 C623     		mov	r3, #198
 1327 0158 5B00     		lsl	r3, r3, #1
 1328 015a BB61     		str	r3, [r7, #24]
 577:Generated_Source\PSoC4/BLE_1_hids.c ****                 cyBle_eventHandlerFlag &= (uint8)~CYBLE_CALLBACK;
 1329              		.loc 1 577 0
 1330 015c 4E4B     		ldr	r3, .L96+8
 1331 015e 1B78     		ldrb	r3, [r3]
 1332 0160 DBB2     		uxtb	r3, r3
 1333 0162 0122     		mov	r2, #1
 1334 0164 9343     		bic	r3, r2
 1335 0166 DAB2     		uxtb	r2, r3
 1336 0168 4B4B     		ldr	r3, .L96+8
 1337 016a 1A70     		strb	r2, [r3]
 1338 016c 17E1     		b	.L77
 1339              	.L83:
 578:Generated_Source\PSoC4/BLE_1_hids.c ****             }
ARM GAS  C:\Users\Jerry\AppData\Local\Temp\ccamILuW.s 			page 35


 579:Generated_Source\PSoC4/BLE_1_hids.c ****             else if(eventParam->handleValPair.attrHandle ==
 1340              		.loc 1 579 0
 1341 016e 7B68     		ldr	r3, [r7, #4]
 1342 0170 9989     		ldrh	r1, [r3, #12]
 580:Generated_Source\PSoC4/BLE_1_hids.c ****                         cyBle_hidss[locServIndex].bootReportArray[CYBLE_HIDS_BOOT_KYBRD_IN_REP_INDX
 1343              		.loc 1 580 0
 1344 0172 1E23     		mov	r3, #30
 1345 0174 FB18     		add	r3, r7, r3
 1346 0176 1A78     		ldrb	r2, [r3]
 1347 0178 4648     		ldr	r0, .L96+4
 1348 017a 131C     		mov	r3, r2
 1349 017c 9B00     		lsl	r3, r3, #2
 1350 017e 9B18     		add	r3, r3, r2
 1351 0180 DB00     		lsl	r3, r3, #3
 1352 0182 C318     		add	r3, r0, r3
 1353 0184 0833     		add	r3, r3, #8
 1354 0186 DB88     		ldrh	r3, [r3, #6]
 579:Generated_Source\PSoC4/BLE_1_hids.c ****                         cyBle_hidss[locServIndex].bootReportArray[CYBLE_HIDS_BOOT_KYBRD_IN_REP_INDX
 1355              		.loc 1 579 0
 1356 0188 9942     		cmp	r1, r3
 1357 018a 0ED1     		bne	.L84
 581:Generated_Source\PSoC4/BLE_1_hids.c ****             {
 582:Generated_Source\PSoC4/BLE_1_hids.c ****                 locCharValue.charIndex = CYBLE_HIDS_BOOT_KYBRD_IN_REP;
 1358              		.loc 1 582 0
 1359 018c 0C23     		mov	r3, #12
 1360 018e FB18     		add	r3, r7, r3
 1361 0190 0422     		mov	r2, #4
 1362 0192 DA70     		strb	r2, [r3, #3]
 583:Generated_Source\PSoC4/BLE_1_hids.c ****                 eventCode = CyBle_HidssCccdWriteEventHandler(locServIndex, eventParam);
 1363              		.loc 1 583 0
 1364 0194 1E23     		mov	r3, #30
 1365 0196 FB18     		add	r3, r7, r3
 1366 0198 1A78     		ldrb	r2, [r3]
 1367 019a 7B68     		ldr	r3, [r7, #4]
 1368 019c 101C     		mov	r0, r2
 1369 019e 191C     		mov	r1, r3
 1370 01a0 FFF7FEFF 		bl	CyBle_HidssCccdWriteEventHandler
 1371 01a4 031C     		mov	r3, r0
 1372 01a6 BB61     		str	r3, [r7, #24]
 1373 01a8 F9E0     		b	.L77
 1374              	.L84:
 584:Generated_Source\PSoC4/BLE_1_hids.c ****             }
 585:Generated_Source\PSoC4/BLE_1_hids.c ****             else if(eventParam->handleValPair.attrHandle ==
 1375              		.loc 1 585 0
 1376 01aa 7B68     		ldr	r3, [r7, #4]
 1377 01ac 9989     		ldrh	r1, [r3, #12]
 586:Generated_Source\PSoC4/BLE_1_hids.c ****                         cyBle_hidss[locServIndex].bootReportArray[CYBLE_HIDS_BOOT_KYBRD_OUT_REP_IND
 1378              		.loc 1 586 0
 1379 01ae 1E23     		mov	r3, #30
 1380 01b0 FB18     		add	r3, r7, r3
 1381 01b2 1A78     		ldrb	r2, [r3]
 1382 01b4 3748     		ldr	r0, .L96+4
 1383 01b6 131C     		mov	r3, r2
 1384 01b8 9B00     		lsl	r3, r3, #2
 1385 01ba 9B18     		add	r3, r3, r2
 1386 01bc DB00     		lsl	r3, r3, #3
 1387 01be C318     		add	r3, r0, r3
ARM GAS  C:\Users\Jerry\AppData\Local\Temp\ccamILuW.s 			page 36


 1388 01c0 0E33     		add	r3, r3, #14
 1389 01c2 9B88     		ldrh	r3, [r3, #4]
 585:Generated_Source\PSoC4/BLE_1_hids.c ****                         cyBle_hidss[locServIndex].bootReportArray[CYBLE_HIDS_BOOT_KYBRD_OUT_REP_IND
 1390              		.loc 1 585 0
 1391 01c4 9942     		cmp	r1, r3
 1392 01c6 14D1     		bne	.L85
 587:Generated_Source\PSoC4/BLE_1_hids.c ****             {
 588:Generated_Source\PSoC4/BLE_1_hids.c ****                 locCharValue.charIndex = CYBLE_HIDS_BOOT_KYBRD_OUT_REP;
 1393              		.loc 1 588 0
 1394 01c8 0C23     		mov	r3, #12
 1395 01ca FB18     		add	r3, r7, r3
 1396 01cc 0522     		mov	r2, #5
 1397 01ce DA70     		strb	r2, [r3, #3]
 589:Generated_Source\PSoC4/BLE_1_hids.c ****                 locCharValue.value = &eventParam->handleValPair.value;
 1398              		.loc 1 589 0
 1399 01d0 7B68     		ldr	r3, [r7, #4]
 1400 01d2 1A1D     		add	r2, r3, #4
 1401 01d4 0C23     		mov	r3, #12
 1402 01d6 FB18     		add	r3, r7, r3
 1403 01d8 5A60     		str	r2, [r3, #4]
 590:Generated_Source\PSoC4/BLE_1_hids.c ****                 eventCode = (uint32)CYBLE_EVT_HIDSS_REPORT_CHAR_WRITE;
 1404              		.loc 1 590 0
 1405 01da C623     		mov	r3, #198
 1406 01dc 5B00     		lsl	r3, r3, #1
 1407 01de BB61     		str	r3, [r7, #24]
 591:Generated_Source\PSoC4/BLE_1_hids.c ****                 cyBle_eventHandlerFlag &= (uint8)~CYBLE_CALLBACK;
 1408              		.loc 1 591 0
 1409 01e0 2D4B     		ldr	r3, .L96+8
 1410 01e2 1B78     		ldrb	r3, [r3]
 1411 01e4 DBB2     		uxtb	r3, r3
 1412 01e6 0122     		mov	r2, #1
 1413 01e8 9343     		bic	r3, r2
 1414 01ea DAB2     		uxtb	r2, r3
 1415 01ec 2A4B     		ldr	r3, .L96+8
 1416 01ee 1A70     		strb	r2, [r3]
 1417 01f0 D5E0     		b	.L77
 1418              	.L85:
 592:Generated_Source\PSoC4/BLE_1_hids.c ****             }
 593:Generated_Source\PSoC4/BLE_1_hids.c ****             else if(eventParam->handleValPair.attrHandle ==
 1419              		.loc 1 593 0
 1420 01f2 7B68     		ldr	r3, [r7, #4]
 1421 01f4 9989     		ldrh	r1, [r3, #12]
 594:Generated_Source\PSoC4/BLE_1_hids.c ****                         cyBle_hidss[locServIndex].bootReportArray[CYBLE_HIDS_BOOT_MOUSE_IN_REP_INDX
 1422              		.loc 1 594 0
 1423 01f6 1E23     		mov	r3, #30
 1424 01f8 FB18     		add	r3, r7, r3
 1425 01fa 1A78     		ldrb	r2, [r3]
 1426 01fc 2548     		ldr	r0, .L96+4
 1427 01fe 131C     		mov	r3, r2
 1428 0200 9B00     		lsl	r3, r3, #2
 1429 0202 9B18     		add	r3, r3, r2
 1430 0204 DB00     		lsl	r3, r3, #3
 1431 0206 C318     		add	r3, r0, r3
 1432 0208 1433     		add	r3, r3, #20
 1433 020a 9B88     		ldrh	r3, [r3, #4]
 593:Generated_Source\PSoC4/BLE_1_hids.c ****                         cyBle_hidss[locServIndex].bootReportArray[CYBLE_HIDS_BOOT_MOUSE_IN_REP_INDX
 1434              		.loc 1 593 0
ARM GAS  C:\Users\Jerry\AppData\Local\Temp\ccamILuW.s 			page 37


 1435 020c 9942     		cmp	r1, r3
 1436 020e 14D1     		bne	.L86
 595:Generated_Source\PSoC4/BLE_1_hids.c ****             {
 596:Generated_Source\PSoC4/BLE_1_hids.c ****                 locCharValue.charIndex = CYBLE_HIDS_BOOT_MOUSE_IN_REP;
 1437              		.loc 1 596 0
 1438 0210 0C23     		mov	r3, #12
 1439 0212 FB18     		add	r3, r7, r3
 1440 0214 0622     		mov	r2, #6
 1441 0216 DA70     		strb	r2, [r3, #3]
 597:Generated_Source\PSoC4/BLE_1_hids.c ****                 locCharValue.value = &eventParam->handleValPair.value;
 1442              		.loc 1 597 0
 1443 0218 7B68     		ldr	r3, [r7, #4]
 1444 021a 1A1D     		add	r2, r3, #4
 1445 021c 0C23     		mov	r3, #12
 1446 021e FB18     		add	r3, r7, r3
 1447 0220 5A60     		str	r2, [r3, #4]
 598:Generated_Source\PSoC4/BLE_1_hids.c ****                 eventCode = (uint32)CYBLE_EVT_HIDSS_REPORT_CHAR_WRITE;
 1448              		.loc 1 598 0
 1449 0222 C623     		mov	r3, #198
 1450 0224 5B00     		lsl	r3, r3, #1
 1451 0226 BB61     		str	r3, [r7, #24]
 599:Generated_Source\PSoC4/BLE_1_hids.c ****                 cyBle_eventHandlerFlag &= (uint8)~CYBLE_CALLBACK;
 1452              		.loc 1 599 0
 1453 0228 1B4B     		ldr	r3, .L96+8
 1454 022a 1B78     		ldrb	r3, [r3]
 1455 022c DBB2     		uxtb	r3, r3
 1456 022e 0122     		mov	r2, #1
 1457 0230 9343     		bic	r3, r2
 1458 0232 DAB2     		uxtb	r2, r3
 1459 0234 184B     		ldr	r3, .L96+8
 1460 0236 1A70     		strb	r2, [r3]
 1461 0238 B1E0     		b	.L77
 1462              	.L86:
 600:Generated_Source\PSoC4/BLE_1_hids.c ****             }
 601:Generated_Source\PSoC4/BLE_1_hids.c ****             else if(eventParam->handleValPair.attrHandle ==
 1463              		.loc 1 601 0
 1464 023a 7B68     		ldr	r3, [r7, #4]
 1465 023c 9989     		ldrh	r1, [r3, #12]
 602:Generated_Source\PSoC4/BLE_1_hids.c ****                         cyBle_hidss[locServIndex].bootReportArray[CYBLE_HIDS_BOOT_MOUSE_IN_REP_INDX
 1466              		.loc 1 602 0
 1467 023e 1E23     		mov	r3, #30
 1468 0240 FB18     		add	r3, r7, r3
 1469 0242 1A78     		ldrb	r2, [r3]
 1470 0244 1348     		ldr	r0, .L96+4
 1471 0246 131C     		mov	r3, r2
 1472 0248 9B00     		lsl	r3, r3, #2
 1473 024a 9B18     		add	r3, r3, r2
 1474 024c DB00     		lsl	r3, r3, #3
 1475 024e C318     		add	r3, r0, r3
 1476 0250 1433     		add	r3, r3, #20
 1477 0252 DB88     		ldrh	r3, [r3, #6]
 601:Generated_Source\PSoC4/BLE_1_hids.c ****                         cyBle_hidss[locServIndex].bootReportArray[CYBLE_HIDS_BOOT_MOUSE_IN_REP_INDX
 1478              		.loc 1 601 0
 1479 0254 9942     		cmp	r1, r3
 1480 0256 0ED1     		bne	.L87
 603:Generated_Source\PSoC4/BLE_1_hids.c ****             {
 604:Generated_Source\PSoC4/BLE_1_hids.c ****                 locCharValue.charIndex = CYBLE_HIDS_BOOT_MOUSE_IN_REP;
ARM GAS  C:\Users\Jerry\AppData\Local\Temp\ccamILuW.s 			page 38


 1481              		.loc 1 604 0
 1482 0258 0C23     		mov	r3, #12
 1483 025a FB18     		add	r3, r7, r3
 1484 025c 0622     		mov	r2, #6
 1485 025e DA70     		strb	r2, [r3, #3]
 605:Generated_Source\PSoC4/BLE_1_hids.c ****                 eventCode = CyBle_HidssCccdWriteEventHandler(locServIndex, eventParam);
 1486              		.loc 1 605 0
 1487 0260 1E23     		mov	r3, #30
 1488 0262 FB18     		add	r3, r7, r3
 1489 0264 1A78     		ldrb	r2, [r3]
 1490 0266 7B68     		ldr	r3, [r7, #4]
 1491 0268 101C     		mov	r0, r2
 1492 026a 191C     		mov	r1, r3
 1493 026c FFF7FEFF 		bl	CyBle_HidssCccdWriteEventHandler
 1494 0270 031C     		mov	r3, r0
 1495 0272 BB61     		str	r3, [r7, #24]
 1496 0274 93E0     		b	.L77
 1497              	.L87:
 1498              	.LBB2:
 606:Generated_Source\PSoC4/BLE_1_hids.c ****             }
 607:Generated_Source\PSoC4/BLE_1_hids.c ****             else
 608:Generated_Source\PSoC4/BLE_1_hids.c ****             {
 609:Generated_Source\PSoC4/BLE_1_hids.c ****                 uint8 locReqHandle = 0u;
 1499              		.loc 1 609 0
 1500 0276 1723     		mov	r3, #23
 1501 0278 FB18     		add	r3, r7, r3
 1502 027a 0022     		mov	r2, #0
 1503 027c 1A70     		strb	r2, [r3]
 610:Generated_Source\PSoC4/BLE_1_hids.c ****                 
 611:Generated_Source\PSoC4/BLE_1_hids.c ****                 locCharIndex = CYBLE_HIDS_REPORT;
 1504              		.loc 1 611 0
 1505 027e 1C23     		mov	r3, #28
 1506 0280 FB18     		add	r3, r7, r3
 1507 0282 0722     		mov	r2, #7
 1508 0284 1A70     		strb	r2, [r3]
 612:Generated_Source\PSoC4/BLE_1_hids.c ****                 for(reportIndex = 0u; (reportIndex < cyBle_hidss[locServIndex].reportCount) && (loc
 1509              		.loc 1 612 0
 1510 0286 1D23     		mov	r3, #29
 1511 0288 FB18     		add	r3, r7, r3
 1512 028a 0022     		mov	r2, #0
 1513 028c 1A70     		strb	r2, [r3]
 1514 028e 71E0     		b	.L88
 1515              	.L97:
 1516              		.align	2
 1517              	.L96:
 1518 0290 00000000 		.word	CyBle_HidsApplCallback
 1519 0294 00000000 		.word	cyBle_hidss
 1520 0298 00000000 		.word	cyBle_eventHandlerFlag
 1521              	.L91:
 613:Generated_Source\PSoC4/BLE_1_hids.c ****                         reportIndex++)
 614:Generated_Source\PSoC4/BLE_1_hids.c ****                 {
 615:Generated_Source\PSoC4/BLE_1_hids.c ****                     if(eventParam->handleValPair.attrHandle == 
 1522              		.loc 1 615 0
 1523 029c 7B68     		ldr	r3, [r7, #4]
 1524 029e 9989     		ldrh	r1, [r3, #12]
 616:Generated_Source\PSoC4/BLE_1_hids.c ****                         cyBle_hidss[locServIndex].reportArray[reportIndex].reportHandle)
 1525              		.loc 1 616 0
ARM GAS  C:\Users\Jerry\AppData\Local\Temp\ccamILuW.s 			page 39


 1526 02a0 1E23     		mov	r3, #30
 1527 02a2 FB18     		add	r3, r7, r3
 1528 02a4 1A78     		ldrb	r2, [r3]
 1529 02a6 5948     		ldr	r0, .L98
 1530 02a8 131C     		mov	r3, r2
 1531 02aa 9B00     		lsl	r3, r3, #2
 1532 02ac 9B18     		add	r3, r3, r2
 1533 02ae DB00     		lsl	r3, r3, #3
 1534 02b0 C318     		add	r3, r0, r3
 1535 02b2 0833     		add	r3, r3, #8
 1536 02b4 1868     		ldr	r0, [r3]
 1537 02b6 1D23     		mov	r3, #29
 1538 02b8 FB18     		add	r3, r7, r3
 1539 02ba 1A78     		ldrb	r2, [r3]
 1540 02bc 131C     		mov	r3, r2
 1541 02be 5B00     		lsl	r3, r3, #1
 1542 02c0 9B18     		add	r3, r3, r2
 1543 02c2 5B00     		lsl	r3, r3, #1
 1544 02c4 C318     		add	r3, r0, r3
 1545 02c6 1B88     		ldrh	r3, [r3]
 615:Generated_Source\PSoC4/BLE_1_hids.c ****                         cyBle_hidss[locServIndex].reportArray[reportIndex].reportHandle)
 1546              		.loc 1 615 0
 1547 02c8 9942     		cmp	r1, r3
 1548 02ca 19D1     		bne	.L89
 617:Generated_Source\PSoC4/BLE_1_hids.c ****                     {
 618:Generated_Source\PSoC4/BLE_1_hids.c ****                         locCharValue.charIndex = locCharIndex;
 1549              		.loc 1 618 0
 1550 02cc 0C23     		mov	r3, #12
 1551 02ce FB18     		add	r3, r7, r3
 1552 02d0 1C22     		mov	r2, #28
 1553 02d2 BA18     		add	r2, r7, r2
 1554 02d4 1278     		ldrb	r2, [r2]
 1555 02d6 DA70     		strb	r2, [r3, #3]
 619:Generated_Source\PSoC4/BLE_1_hids.c ****                         locCharValue.value = &eventParam->handleValPair.value;
 1556              		.loc 1 619 0
 1557 02d8 7B68     		ldr	r3, [r7, #4]
 1558 02da 1A1D     		add	r2, r3, #4
 1559 02dc 0C23     		mov	r3, #12
 1560 02de FB18     		add	r3, r7, r3
 1561 02e0 5A60     		str	r2, [r3, #4]
 620:Generated_Source\PSoC4/BLE_1_hids.c ****                         eventCode = (uint32)CYBLE_EVT_HIDSS_REPORT_CHAR_WRITE;
 1562              		.loc 1 620 0
 1563 02e2 C623     		mov	r3, #198
 1564 02e4 5B00     		lsl	r3, r3, #1
 1565 02e6 BB61     		str	r3, [r7, #24]
 621:Generated_Source\PSoC4/BLE_1_hids.c ****                         cyBle_eventHandlerFlag &= (uint8)~CYBLE_CALLBACK;
 1566              		.loc 1 621 0
 1567 02e8 494B     		ldr	r3, .L98+4
 1568 02ea 1B78     		ldrb	r3, [r3]
 1569 02ec DBB2     		uxtb	r3, r3
 1570 02ee 0122     		mov	r2, #1
 1571 02f0 9343     		bic	r3, r2
 1572 02f2 DAB2     		uxtb	r2, r3
 1573 02f4 464B     		ldr	r3, .L98+4
 1574 02f6 1A70     		strb	r2, [r3]
 622:Generated_Source\PSoC4/BLE_1_hids.c ****                         locReqHandle = 1u;
 1575              		.loc 1 622 0
ARM GAS  C:\Users\Jerry\AppData\Local\Temp\ccamILuW.s 			page 40


 1576 02f8 1723     		mov	r3, #23
 1577 02fa FB18     		add	r3, r7, r3
 1578 02fc 0122     		mov	r2, #1
 1579 02fe 1A70     		strb	r2, [r3]
 1580              	.L89:
 623:Generated_Source\PSoC4/BLE_1_hids.c ****                     }
 624:Generated_Source\PSoC4/BLE_1_hids.c ****                     if(eventParam->handleValPair.attrHandle == 
 1581              		.loc 1 624 0
 1582 0300 7B68     		ldr	r3, [r7, #4]
 1583 0302 9989     		ldrh	r1, [r3, #12]
 625:Generated_Source\PSoC4/BLE_1_hids.c ****                         cyBle_hidss[locServIndex].reportArray[reportIndex].cccdHandle)
 1584              		.loc 1 625 0
 1585 0304 1E23     		mov	r3, #30
 1586 0306 FB18     		add	r3, r7, r3
 1587 0308 1A78     		ldrb	r2, [r3]
 1588 030a 4048     		ldr	r0, .L98
 1589 030c 131C     		mov	r3, r2
 1590 030e 9B00     		lsl	r3, r3, #2
 1591 0310 9B18     		add	r3, r3, r2
 1592 0312 DB00     		lsl	r3, r3, #3
 1593 0314 C318     		add	r3, r0, r3
 1594 0316 0833     		add	r3, r3, #8
 1595 0318 1868     		ldr	r0, [r3]
 1596 031a 1D23     		mov	r3, #29
 1597 031c FB18     		add	r3, r7, r3
 1598 031e 1A78     		ldrb	r2, [r3]
 1599 0320 131C     		mov	r3, r2
 1600 0322 5B00     		lsl	r3, r3, #1
 1601 0324 9B18     		add	r3, r3, r2
 1602 0326 5B00     		lsl	r3, r3, #1
 1603 0328 C318     		add	r3, r0, r3
 1604 032a 5B88     		ldrh	r3, [r3, #2]
 624:Generated_Source\PSoC4/BLE_1_hids.c ****                         cyBle_hidss[locServIndex].reportArray[reportIndex].cccdHandle)
 1605              		.loc 1 624 0
 1606 032c 9942     		cmp	r1, r3
 1607 032e 13D1     		bne	.L90
 626:Generated_Source\PSoC4/BLE_1_hids.c ****                     {
 627:Generated_Source\PSoC4/BLE_1_hids.c ****                         locCharValue.charIndex = locCharIndex;
 1608              		.loc 1 627 0
 1609 0330 0C23     		mov	r3, #12
 1610 0332 FB18     		add	r3, r7, r3
 1611 0334 1C22     		mov	r2, #28
 1612 0336 BA18     		add	r2, r7, r2
 1613 0338 1278     		ldrb	r2, [r2]
 1614 033a DA70     		strb	r2, [r3, #3]
 628:Generated_Source\PSoC4/BLE_1_hids.c ****                         eventCode = CyBle_HidssCccdWriteEventHandler(locServIndex, eventParam);
 1615              		.loc 1 628 0
 1616 033c 1E23     		mov	r3, #30
 1617 033e FB18     		add	r3, r7, r3
 1618 0340 1A78     		ldrb	r2, [r3]
 1619 0342 7B68     		ldr	r3, [r7, #4]
 1620 0344 101C     		mov	r0, r2
 1621 0346 191C     		mov	r1, r3
 1622 0348 FFF7FEFF 		bl	CyBle_HidssCccdWriteEventHandler
 1623 034c 031C     		mov	r3, r0
 1624 034e BB61     		str	r3, [r7, #24]
 629:Generated_Source\PSoC4/BLE_1_hids.c ****                         locReqHandle = 1u;
ARM GAS  C:\Users\Jerry\AppData\Local\Temp\ccamILuW.s 			page 41


 1625              		.loc 1 629 0
 1626 0350 1723     		mov	r3, #23
 1627 0352 FB18     		add	r3, r7, r3
 1628 0354 0122     		mov	r2, #1
 1629 0356 1A70     		strb	r2, [r3]
 1630              	.L90:
 630:Generated_Source\PSoC4/BLE_1_hids.c ****                     }
 631:Generated_Source\PSoC4/BLE_1_hids.c ****                     locCharIndex++;
 1631              		.loc 1 631 0
 1632 0358 1C23     		mov	r3, #28
 1633 035a FB18     		add	r3, r7, r3
 1634 035c 1A78     		ldrb	r2, [r3]
 1635 035e 1C23     		mov	r3, #28
 1636 0360 FB18     		add	r3, r7, r3
 1637 0362 0132     		add	r2, r2, #1
 1638 0364 1A70     		strb	r2, [r3]
 613:Generated_Source\PSoC4/BLE_1_hids.c ****                 {
 1639              		.loc 1 613 0
 1640 0366 1D23     		mov	r3, #29
 1641 0368 FB18     		add	r3, r7, r3
 1642 036a 1A78     		ldrb	r2, [r3]
 1643 036c 1D23     		mov	r3, #29
 1644 036e FB18     		add	r3, r7, r3
 1645 0370 0132     		add	r2, r2, #1
 1646 0372 1A70     		strb	r2, [r3]
 1647              	.L88:
 612:Generated_Source\PSoC4/BLE_1_hids.c ****                         reportIndex++)
 1648              		.loc 1 612 0 discriminator 1
 1649 0374 1E23     		mov	r3, #30
 1650 0376 FB18     		add	r3, r7, r3
 1651 0378 1A78     		ldrb	r2, [r3]
 1652 037a 2449     		ldr	r1, .L98
 1653 037c 131C     		mov	r3, r2
 1654 037e 9B00     		lsl	r3, r3, #2
 1655 0380 9B18     		add	r3, r3, r2
 1656 0382 DB00     		lsl	r3, r3, #3
 1657 0384 CB18     		add	r3, r1, r3
 1658 0386 1B79     		ldrb	r3, [r3, #4]
 1659 0388 1D22     		mov	r2, #29
 1660 038a BA18     		add	r2, r7, r2
 1661 038c 1278     		ldrb	r2, [r2]
 1662 038e 9A42     		cmp	r2, r3
 1663 0390 05D2     		bcs	.L77
 612:Generated_Source\PSoC4/BLE_1_hids.c ****                         reportIndex++)
 1664              		.loc 1 612 0 is_stmt 0 discriminator 2
 1665 0392 1723     		mov	r3, #23
 1666 0394 FB18     		add	r3, r7, r3
 1667 0396 1B78     		ldrb	r3, [r3]
 1668 0398 002B     		cmp	r3, #0
 1669 039a 00D1     		bne	.LCB1494
 1670 039c 7EE7     		b	.L91	@long jump
 1671              	.LCB1494:
 1672              	.L77:
 1673              	.LBE2:
 632:Generated_Source\PSoC4/BLE_1_hids.c ****                 }
 633:Generated_Source\PSoC4/BLE_1_hids.c ****             }
 634:Generated_Source\PSoC4/BLE_1_hids.c ****             locServIndex++;
ARM GAS  C:\Users\Jerry\AppData\Local\Temp\ccamILuW.s 			page 42


 1674              		.loc 1 634 0 is_stmt 1
 1675 039e 1E23     		mov	r3, #30
 1676 03a0 FB18     		add	r3, r7, r3
 1677 03a2 1A78     		ldrb	r2, [r3]
 1678 03a4 1E23     		mov	r3, #30
 1679 03a6 FB18     		add	r3, r7, r3
 1680 03a8 0132     		add	r2, r2, #1
 1681 03aa 1A70     		strb	r2, [r3]
 635:Generated_Source\PSoC4/BLE_1_hids.c ****             /* Store data to database if event is handled */
 636:Generated_Source\PSoC4/BLE_1_hids.c ****             if((cyBle_eventHandlerFlag & CYBLE_CALLBACK) == 0u)
 1682              		.loc 1 636 0
 1683 03ac 184B     		ldr	r3, .L98+4
 1684 03ae 1B78     		ldrb	r3, [r3]
 1685 03b0 DBB2     		uxtb	r3, r3
 1686 03b2 1A1C     		mov	r2, r3
 1687 03b4 0123     		mov	r3, #1
 1688 03b6 1340     		and	r3, r2
 1689 03b8 1BD1     		bne	.L92
 637:Generated_Source\PSoC4/BLE_1_hids.c ****             {
 638:Generated_Source\PSoC4/BLE_1_hids.c ****                 gattErr = CyBle_GattsWriteAttributeValue(&eventParam->handleValPair, 0u, 
 1690              		.loc 1 638 0
 1691 03ba 7B68     		ldr	r3, [r7, #4]
 1692 03bc 1A1D     		add	r2, r3, #4
 1693 03be 7B68     		ldr	r3, [r7, #4]
 1694 03c0 1F21     		mov	r1, #31
 1695 03c2 7C18     		add	r4, r7, r1
 1696 03c4 101C     		mov	r0, r2
 1697 03c6 0021     		mov	r1, #0
 1698 03c8 1A1C     		mov	r2, r3
 1699 03ca 4023     		mov	r3, #64
 1700 03cc FFF7FEFF 		bl	CyBle_GattsWriteAttributeValue
 1701 03d0 031C     		mov	r3, r0
 1702 03d2 2370     		strb	r3, [r4]
 639:Generated_Source\PSoC4/BLE_1_hids.c ****                     &eventParam->connHandle, CYBLE_GATT_DB_PEER_INITIATED);
 640:Generated_Source\PSoC4/BLE_1_hids.c ****                 if(gattErr == CYBLE_GATT_ERR_NONE)
 1703              		.loc 1 640 0
 1704 03d4 1F23     		mov	r3, #31
 1705 03d6 FB18     		add	r3, r7, r3
 1706 03d8 1B78     		ldrb	r3, [r3]
 1707 03da 002B     		cmp	r3, #0
 1708 03dc 08D1     		bne	.L93
 641:Generated_Source\PSoC4/BLE_1_hids.c ****                 {                
 642:Generated_Source\PSoC4/BLE_1_hids.c ****                     CyBle_HidsApplCallback(eventCode, &locCharValue);
 1709              		.loc 1 642 0
 1710 03de 0D4B     		ldr	r3, .L98+8
 1711 03e0 1B68     		ldr	r3, [r3]
 1712 03e2 B969     		ldr	r1, [r7, #24]
 1713 03e4 0C22     		mov	r2, #12
 1714 03e6 BA18     		add	r2, r7, r2
 1715 03e8 081C     		mov	r0, r1
 1716 03ea 111C     		mov	r1, r2
 1717 03ec 9847     		blx	r3
 643:Generated_Source\PSoC4/BLE_1_hids.c ****                 }
 644:Generated_Source\PSoC4/BLE_1_hids.c ****                 break;
 1718              		.loc 1 644 0
 1719 03ee 06E0     		b	.L71
 1720              	.L93:
ARM GAS  C:\Users\Jerry\AppData\Local\Temp\ccamILuW.s 			page 43


 1721 03f0 05E0     		b	.L71
 1722              	.L92:
 645:Generated_Source\PSoC4/BLE_1_hids.c ****             }
 646:Generated_Source\PSoC4/BLE_1_hids.c ****         }while(locServIndex < CYBLE_HIDSS_SERVICE_COUNT);
 1723              		.loc 1 646 0
 1724 03f2 1E23     		mov	r3, #30
 1725 03f4 FB18     		add	r3, r7, r3
 1726 03f6 1B78     		ldrb	r3, [r3]
 1727 03f8 002B     		cmp	r3, #0
 1728 03fa 00D1     		bne	.LCB1549
 1729 03fc 1CE6     		b	.L94	@long jump
 1730              	.LCB1549:
 1731              	.L71:
 647:Generated_Source\PSoC4/BLE_1_hids.c ****     }
 648:Generated_Source\PSoC4/BLE_1_hids.c ****     return (gattErr);
 1732              		.loc 1 648 0
 1733 03fe 1F23     		mov	r3, #31
 1734 0400 FB18     		add	r3, r7, r3
 1735 0402 1B78     		ldrb	r3, [r3]
 649:Generated_Source\PSoC4/BLE_1_hids.c **** }
 1736              		.loc 1 649 0
 1737 0404 181C     		mov	r0, r3
 1738 0406 BD46     		mov	sp, r7
 1739 0408 09B0     		add	sp, sp, #36
 1740              		@ sp needed
 1741 040a 90BD     		pop	{r4, r7, pc}
 1742              	.L99:
 1743              		.align	2
 1744              	.L98:
 1745 040c 00000000 		.word	cyBle_hidss
 1746 0410 00000000 		.word	cyBle_eventHandlerFlag
 1747 0414 00000000 		.word	CyBle_HidsApplCallback
 1748              		.cfi_endproc
 1749              	.LFE8:
 1750              		.size	CyBle_HidssWriteEventHandler, .-CyBle_HidssWriteEventHandler
 1751              		.section	.text.CyBle_HidssSendNotification,"ax",%progbits
 1752              		.align	2
 1753              		.global	CyBle_HidssSendNotification
 1754              		.code	16
 1755              		.thumb_func
 1756              		.type	CyBle_HidssSendNotification, %function
 1757              	CyBle_HidssSendNotification:
 1758              	.LFB9:
 650:Generated_Source\PSoC4/BLE_1_hids.c **** 
 651:Generated_Source\PSoC4/BLE_1_hids.c **** 
 652:Generated_Source\PSoC4/BLE_1_hids.c **** /****************************************************************************** 
 653:Generated_Source\PSoC4/BLE_1_hids.c **** * Function Name: CyBle_HidssSendNotification
 654:Generated_Source\PSoC4/BLE_1_hids.c **** ***************************************************************************//**
 655:Generated_Source\PSoC4/BLE_1_hids.c **** * 
 656:Generated_Source\PSoC4/BLE_1_hids.c **** *  Sends specified HID Service characteristic notification to the Client device.
 657:Generated_Source\PSoC4/BLE_1_hids.c **** * 
 658:Generated_Source\PSoC4/BLE_1_hids.c **** *  CYBLE_EVT_HIDSC_NOTIFICATION event is received by the peer device, on invoking 
 659:Generated_Source\PSoC4/BLE_1_hids.c **** *   this function.
 660:Generated_Source\PSoC4/BLE_1_hids.c **** *
 661:Generated_Source\PSoC4/BLE_1_hids.c **** *  On enabling notification successfully for a service characteristic, if the GATT
 662:Generated_Source\PSoC4/BLE_1_hids.c **** *  server has an updated value to be notified to the GATT Client, it sends out a
 663:Generated_Source\PSoC4/BLE_1_hids.c **** *  'Handle Value Notification' which results in CYBLE_EVT_HIDSC_NOTIFICATION event
ARM GAS  C:\Users\Jerry\AppData\Local\Temp\ccamILuW.s 			page 44


 664:Generated_Source\PSoC4/BLE_1_hids.c **** *  at the GATT Client's end.
 665:Generated_Source\PSoC4/BLE_1_hids.c **** * 
 666:Generated_Source\PSoC4/BLE_1_hids.c **** *  \param connHandle: BLE peer device connection handle.
 667:Generated_Source\PSoC4/BLE_1_hids.c **** *  \param serviceIndex: The index of the HID service instance. e.g. If two HID Services
 668:Generated_Source\PSoC4/BLE_1_hids.c **** *                 are supported in your design, then first service will be 
 669:Generated_Source\PSoC4/BLE_1_hids.c **** *                 identified by serviceIndex of 0 and the second by serviceIndex
 670:Generated_Source\PSoC4/BLE_1_hids.c **** *                 of 1.
 671:Generated_Source\PSoC4/BLE_1_hids.c **** *  \param charIndex: The index of the service characteristic.
 672:Generated_Source\PSoC4/BLE_1_hids.c **** *  \param attrSize: The size of the characteristic value attribute.
 673:Generated_Source\PSoC4/BLE_1_hids.c **** *  \param attrValue: Pointer to the characteristic value data that should be sent to
 674:Generated_Source\PSoC4/BLE_1_hids.c **** *               the Client device.
 675:Generated_Source\PSoC4/BLE_1_hids.c **** * 
 676:Generated_Source\PSoC4/BLE_1_hids.c **** * \return
 677:Generated_Source\PSoC4/BLE_1_hids.c **** *  Return value is of type CYBLE_API_RESULT_T.
 678:Generated_Source\PSoC4/BLE_1_hids.c **** *   * CYBLE_ERROR_OK - The request handled successfully
 679:Generated_Source\PSoC4/BLE_1_hids.c **** *   * CYBLE_ERROR_INVALID_PARAMETER - Validation of the input parameter failed
 680:Generated_Source\PSoC4/BLE_1_hids.c **** *   * CYBLE_ERROR_INVALID_OPERATION - This operation is not permitted
 681:Generated_Source\PSoC4/BLE_1_hids.c **** *   * CYBLE_ERROR_GATT_DB_INVALID_ATTR_HANDLE - Optional characteristic is absent
 682:Generated_Source\PSoC4/BLE_1_hids.c **** *   * CYBLE_ERROR_INVALID_STATE - Connection with the client is not established
 683:Generated_Source\PSoC4/BLE_1_hids.c **** *   * CYBLE_ERROR_MEMORY_ALLOCATION_FAILED - Memory allocation failed. 
 684:Generated_Source\PSoC4/BLE_1_hids.c **** * 
 685:Generated_Source\PSoC4/BLE_1_hids.c **** ******************************************************************************/
 686:Generated_Source\PSoC4/BLE_1_hids.c **** CYBLE_API_RESULT_T CyBle_HidssSendNotification(CYBLE_CONN_HANDLE_T connHandle,
 687:Generated_Source\PSoC4/BLE_1_hids.c ****     uint8 serviceIndex, CYBLE_HIDS_CHAR_INDEX_T charIndex, uint8 attrSize, uint8 *attrValue)
 688:Generated_Source\PSoC4/BLE_1_hids.c **** {
 1759              		.loc 1 688 0
 1760              		.cfi_startproc
 1761 0000 90B5     		push	{r4, r7, lr}
 1762              		.cfi_def_cfa_offset 12
 1763              		.cfi_offset 4, -12
 1764              		.cfi_offset 7, -8
 1765              		.cfi_offset 14, -4
 1766 0002 8BB0     		sub	sp, sp, #44
 1767              		.cfi_def_cfa_offset 56
 1768 0004 00AF     		add	r7, sp, #0
 1769              		.cfi_def_cfa_register 7
 1770 0006 3C1D     		add	r4, r7, #4
 1771 0008 2080     		strh	r0, [r4]
 1772 000a 0C1C     		mov	r4, r1
 1773 000c 101C     		mov	r0, r2
 1774 000e 191C     		mov	r1, r3
 1775 0010 FB1C     		add	r3, r7, #3
 1776 0012 221C     		add	r2, r4, #0
 1777 0014 1A70     		strb	r2, [r3]
 1778 0016 BB1C     		add	r3, r7, #2
 1779 0018 021C     		add	r2, r0, #0
 1780 001a 1A70     		strb	r2, [r3]
 1781 001c 7B1C     		add	r3, r7, #1
 1782 001e 0A1C     		add	r2, r1, #0
 1783 0020 1A70     		strb	r2, [r3]
 689:Generated_Source\PSoC4/BLE_1_hids.c ****     CYBLE_API_RESULT_T apiResult = CYBLE_ERROR_OK;
 1784              		.loc 1 689 0
 1785 0022 2623     		mov	r3, #38
 1786 0024 FB18     		add	r3, r7, r3
 1787 0026 0022     		mov	r2, #0
 1788 0028 1A80     		strh	r2, [r3]
 690:Generated_Source\PSoC4/BLE_1_hids.c ****     const CYBLE_HIDSS_REPORT_T *locReport;
ARM GAS  C:\Users\Jerry\AppData\Local\Temp\ccamILuW.s 			page 45


 691:Generated_Source\PSoC4/BLE_1_hids.c ****     CYBLE_GATTS_HANDLE_VALUE_NTF_T ntfReqParam;
 692:Generated_Source\PSoC4/BLE_1_hids.c ****     CYBLE_GATT_HANDLE_VALUE_PAIR_T locHandleValuePair;
 693:Generated_Source\PSoC4/BLE_1_hids.c **** 
 694:Generated_Source\PSoC4/BLE_1_hids.c ****     if((serviceIndex >= CYBLE_HIDSS_SERVICE_COUNT) || (charIndex >= CYBLE_HIDS_CHAR_COUNT))
 1789              		.loc 1 694 0
 1790 002a FB1C     		add	r3, r7, #3
 1791 002c 1B78     		ldrb	r3, [r3]
 1792 002e 002B     		cmp	r3, #0
 1793 0030 03D1     		bne	.L101
 1794              		.loc 1 694 0 is_stmt 0 discriminator 1
 1795 0032 BB1C     		add	r3, r7, #2
 1796 0034 1B78     		ldrb	r3, [r3]
 1797 0036 072B     		cmp	r3, #7
 1798 0038 04D9     		bls	.L102
 1799              	.L101:
 695:Generated_Source\PSoC4/BLE_1_hids.c ****     {
 696:Generated_Source\PSoC4/BLE_1_hids.c ****         apiResult = CYBLE_ERROR_INVALID_PARAMETER;
 1800              		.loc 1 696 0 is_stmt 1
 1801 003a 2623     		mov	r3, #38
 1802 003c FB18     		add	r3, r7, r3
 1803 003e 0122     		mov	r2, #1
 1804 0040 1A80     		strh	r2, [r3]
 1805 0042 BAE0     		b	.L103
 1806              	.L102:
 697:Generated_Source\PSoC4/BLE_1_hids.c ****     }
 698:Generated_Source\PSoC4/BLE_1_hids.c ****     else
 699:Generated_Source\PSoC4/BLE_1_hids.c ****     {
 700:Generated_Source\PSoC4/BLE_1_hids.c ****         if(charIndex == CYBLE_HIDS_BOOT_KYBRD_IN_REP)
 1807              		.loc 1 700 0
 1808 0044 BB1C     		add	r3, r7, #2
 1809 0046 1B78     		ldrb	r3, [r3]
 1810 0048 042B     		cmp	r3, #4
 1811 004a 0CD1     		bne	.L104
 701:Generated_Source\PSoC4/BLE_1_hids.c ****         {
 702:Generated_Source\PSoC4/BLE_1_hids.c ****             locReport = &cyBle_hidss[serviceIndex].bootReportArray[CYBLE_HIDS_BOOT_KYBRD_IN_REP_IND
 1812              		.loc 1 702 0
 1813 004c FB1C     		add	r3, r7, #3
 1814 004e 1A78     		ldrb	r2, [r3]
 1815 0050 131C     		mov	r3, r2
 1816 0052 9B00     		lsl	r3, r3, #2
 1817 0054 9B18     		add	r3, r3, r2
 1818 0056 DB00     		lsl	r3, r3, #3
 1819 0058 0833     		add	r3, r3, #8
 1820 005a 1A1C     		mov	r2, r3
 1821 005c 5A4B     		ldr	r3, .L115
 1822 005e D318     		add	r3, r2, r3
 1823 0060 0433     		add	r3, r3, #4
 1824 0062 3B62     		str	r3, [r7, #32]
 1825 0064 43E0     		b	.L105
 1826              	.L104:
 703:Generated_Source\PSoC4/BLE_1_hids.c ****         }
 704:Generated_Source\PSoC4/BLE_1_hids.c ****         else if(charIndex == CYBLE_HIDS_BOOT_MOUSE_IN_REP)
 1827              		.loc 1 704 0
 1828 0066 BB1C     		add	r3, r7, #2
 1829 0068 1B78     		ldrb	r3, [r3]
 1830 006a 062B     		cmp	r3, #6
 1831 006c 0CD1     		bne	.L106
ARM GAS  C:\Users\Jerry\AppData\Local\Temp\ccamILuW.s 			page 46


 705:Generated_Source\PSoC4/BLE_1_hids.c ****         {
 706:Generated_Source\PSoC4/BLE_1_hids.c ****             locReport = &cyBle_hidss[serviceIndex].bootReportArray[CYBLE_HIDS_BOOT_MOUSE_IN_REP_IND
 1832              		.loc 1 706 0
 1833 006e FB1C     		add	r3, r7, #3
 1834 0070 1A78     		ldrb	r2, [r3]
 1835 0072 131C     		mov	r3, r2
 1836 0074 9B00     		lsl	r3, r3, #2
 1837 0076 9B18     		add	r3, r3, r2
 1838 0078 DB00     		lsl	r3, r3, #3
 1839 007a 1433     		add	r3, r3, #20
 1840 007c 1A1C     		mov	r2, r3
 1841 007e 524B     		ldr	r3, .L115
 1842 0080 D318     		add	r3, r2, r3
 1843 0082 0433     		add	r3, r3, #4
 1844 0084 3B62     		str	r3, [r7, #32]
 1845 0086 32E0     		b	.L105
 1846              	.L106:
 707:Generated_Source\PSoC4/BLE_1_hids.c ****         }
 708:Generated_Source\PSoC4/BLE_1_hids.c ****         else if((charIndex >= CYBLE_HIDS_REPORT) && (charIndex <= CYBLE_HIDS_REPORT_END))
 1847              		.loc 1 708 0
 1848 0088 BB1C     		add	r3, r7, #2
 1849 008a 1B78     		ldrb	r3, [r3]
 1850 008c 062B     		cmp	r3, #6
 1851 008e 2AD9     		bls	.L107
 1852              		.loc 1 708 0 is_stmt 0 discriminator 1
 1853 0090 BB1C     		add	r3, r7, #2
 1854 0092 1B78     		ldrb	r3, [r3]
 1855 0094 072B     		cmp	r3, #7
 1856 0096 26D8     		bhi	.L107
 709:Generated_Source\PSoC4/BLE_1_hids.c ****         {
 710:Generated_Source\PSoC4/BLE_1_hids.c ****             /* Verify that requested report exists in particular service */
 711:Generated_Source\PSoC4/BLE_1_hids.c ****             if((charIndex - CYBLE_HIDS_REPORT) < cyBle_hidss[serviceIndex].reportCount)
 1857              		.loc 1 711 0 is_stmt 1
 1858 0098 BB1C     		add	r3, r7, #2
 1859 009a 1B78     		ldrb	r3, [r3]
 1860 009c D91F     		sub	r1, r3, #7
 1861 009e FB1C     		add	r3, r7, #3
 1862 00a0 1A78     		ldrb	r2, [r3]
 1863 00a2 4948     		ldr	r0, .L115
 1864 00a4 131C     		mov	r3, r2
 1865 00a6 9B00     		lsl	r3, r3, #2
 1866 00a8 9B18     		add	r3, r3, r2
 1867 00aa DB00     		lsl	r3, r3, #3
 1868 00ac C318     		add	r3, r0, r3
 1869 00ae 1B79     		ldrb	r3, [r3, #4]
 1870 00b0 9942     		cmp	r1, r3
 1871 00b2 13DA     		bge	.L108
 712:Generated_Source\PSoC4/BLE_1_hids.c ****             {
 713:Generated_Source\PSoC4/BLE_1_hids.c ****                 locReport = &cyBle_hidss[serviceIndex].reportArray[charIndex - CYBLE_HIDS_REPORT];
 1872              		.loc 1 713 0
 1873 00b4 FB1C     		add	r3, r7, #3
 1874 00b6 1A78     		ldrb	r2, [r3]
 1875 00b8 4349     		ldr	r1, .L115
 1876 00ba 131C     		mov	r3, r2
 1877 00bc 9B00     		lsl	r3, r3, #2
 1878 00be 9B18     		add	r3, r3, r2
 1879 00c0 DB00     		lsl	r3, r3, #3
ARM GAS  C:\Users\Jerry\AppData\Local\Temp\ccamILuW.s 			page 47


 1880 00c2 CB18     		add	r3, r1, r3
 1881 00c4 0833     		add	r3, r3, #8
 1882 00c6 1968     		ldr	r1, [r3]
 1883 00c8 BB1C     		add	r3, r7, #2
 1884 00ca 1A78     		ldrb	r2, [r3]
 1885 00cc 131C     		mov	r3, r2
 1886 00ce 5B00     		lsl	r3, r3, #1
 1887 00d0 9B18     		add	r3, r3, r2
 1888 00d2 5B00     		lsl	r3, r3, #1
 1889 00d4 2A3B     		sub	r3, r3, #42
 1890 00d6 CB18     		add	r3, r1, r3
 1891 00d8 3B62     		str	r3, [r7, #32]
 711:Generated_Source\PSoC4/BLE_1_hids.c ****             {
 1892              		.loc 1 711 0
 1893 00da 08E0     		b	.L105
 1894              	.L108:
 714:Generated_Source\PSoC4/BLE_1_hids.c ****             }
 715:Generated_Source\PSoC4/BLE_1_hids.c ****             else
 716:Generated_Source\PSoC4/BLE_1_hids.c ****             {
 717:Generated_Source\PSoC4/BLE_1_hids.c ****                 apiResult = CYBLE_ERROR_INVALID_PARAMETER;
 1895              		.loc 1 717 0
 1896 00dc 2623     		mov	r3, #38
 1897 00de FB18     		add	r3, r7, r3
 1898 00e0 0122     		mov	r2, #1
 1899 00e2 1A80     		strh	r2, [r3]
 711:Generated_Source\PSoC4/BLE_1_hids.c ****             {
 1900              		.loc 1 711 0
 1901 00e4 03E0     		b	.L105
 1902              	.L107:
 718:Generated_Source\PSoC4/BLE_1_hids.c ****             }
 719:Generated_Source\PSoC4/BLE_1_hids.c ****         }
 720:Generated_Source\PSoC4/BLE_1_hids.c ****         else
 721:Generated_Source\PSoC4/BLE_1_hids.c ****         {
 722:Generated_Source\PSoC4/BLE_1_hids.c ****             apiResult = CYBLE_ERROR_INVALID_PARAMETER;
 1903              		.loc 1 722 0
 1904 00e6 2623     		mov	r3, #38
 1905 00e8 FB18     		add	r3, r7, r3
 1906 00ea 0122     		mov	r2, #1
 1907 00ec 1A80     		strh	r2, [r3]
 1908              	.L105:
 723:Generated_Source\PSoC4/BLE_1_hids.c ****         }
 724:Generated_Source\PSoC4/BLE_1_hids.c ****         if(apiResult == CYBLE_ERROR_OK)
 1909              		.loc 1 724 0
 1910 00ee 2623     		mov	r3, #38
 1911 00f0 FB18     		add	r3, r7, r3
 1912 00f2 1B88     		ldrh	r3, [r3]
 1913 00f4 002B     		cmp	r3, #0
 1914 00f6 60D1     		bne	.L103
 725:Generated_Source\PSoC4/BLE_1_hids.c ****         {
 726:Generated_Source\PSoC4/BLE_1_hids.c ****             if(locReport->reportHandle == CYBLE_GATT_INVALID_ATTR_HANDLE_VALUE)
 1915              		.loc 1 726 0
 1916 00f8 3B6A     		ldr	r3, [r7, #32]
 1917 00fa 1B88     		ldrh	r3, [r3]
 1918 00fc 002B     		cmp	r3, #0
 1919 00fe 04D1     		bne	.L110
 727:Generated_Source\PSoC4/BLE_1_hids.c ****             {
 728:Generated_Source\PSoC4/BLE_1_hids.c ****                 apiResult = CYBLE_ERROR_GATT_DB_INVALID_ATTR_HANDLE;
ARM GAS  C:\Users\Jerry\AppData\Local\Temp\ccamILuW.s 			page 48


 1920              		.loc 1 728 0
 1921 0100 2623     		mov	r3, #38
 1922 0102 FB18     		add	r3, r7, r3
 1923 0104 1322     		mov	r2, #19
 1924 0106 1A80     		strh	r2, [r3]
 1925 0108 57E0     		b	.L103
 1926              	.L110:
 729:Generated_Source\PSoC4/BLE_1_hids.c ****             }
 730:Generated_Source\PSoC4/BLE_1_hids.c ****             else
 731:Generated_Source\PSoC4/BLE_1_hids.c ****             {
 732:Generated_Source\PSoC4/BLE_1_hids.c ****                 /* Send Notification if it is enabled and connected */
 733:Generated_Source\PSoC4/BLE_1_hids.c ****                 if(CYBLE_IS_NOTIFICATION_ENABLED(locReport->cccdHandle))
 1927              		.loc 1 733 0
 1928 010a 3B6A     		ldr	r3, [r7, #32]
 1929 010c 5B88     		ldrh	r3, [r3, #2]
 1930 010e 5A1E     		sub	r2, r3, #1
 1931 0110 2E49     		ldr	r1, .L115+4
 1932 0112 131C     		mov	r3, r2
 1933 0114 9B00     		lsl	r3, r3, #2
 1934 0116 9B18     		add	r3, r3, r2
 1935 0118 9B00     		lsl	r3, r3, #2
 1936 011a CB18     		add	r3, r1, r3
 1937 011c 0833     		add	r3, r3, #8
 1938 011e 9B68     		ldr	r3, [r3, #8]
 1939 0120 5B68     		ldr	r3, [r3, #4]
 1940 0122 181C     		mov	r0, r3
 1941 0124 FFF7FEFF 		bl	CyBle_Get16ByPtr
 1942 0128 031C     		mov	r3, r0
 1943 012a 1A1C     		mov	r2, r3
 1944 012c 0123     		mov	r3, #1
 1945 012e 1340     		and	r3, r2
 1946 0130 9BB2     		uxth	r3, r3
 1947 0132 002B     		cmp	r3, #0
 1948 0134 24D0     		beq	.L111
 734:Generated_Source\PSoC4/BLE_1_hids.c ****                 {
 735:Generated_Source\PSoC4/BLE_1_hids.c ****                     if(cyBle_state == CYBLE_STATE_CONNECTED)
 1949              		.loc 1 735 0
 1950 0136 264B     		ldr	r3, .L115+8
 1951 0138 1B78     		ldrb	r3, [r3]
 1952 013a 022B     		cmp	r3, #2
 1953 013c 1AD1     		bne	.L112
 736:Generated_Source\PSoC4/BLE_1_hids.c ****                     {
 737:Generated_Source\PSoC4/BLE_1_hids.c ****                         /* Fill all fields of write request structure ... */
 738:Generated_Source\PSoC4/BLE_1_hids.c ****                         ntfReqParam.attrHandle = locReport->reportHandle;
 1954              		.loc 1 738 0
 1955 013e 3B6A     		ldr	r3, [r7, #32]
 1956 0140 1A88     		ldrh	r2, [r3]
 1957 0142 1423     		mov	r3, #20
 1958 0144 FB18     		add	r3, r7, r3
 1959 0146 1A81     		strh	r2, [r3, #8]
 739:Generated_Source\PSoC4/BLE_1_hids.c ****                         ntfReqParam.value.val = attrValue;
 1960              		.loc 1 739 0
 1961 0148 1423     		mov	r3, #20
 1962 014a FB18     		add	r3, r7, r3
 1963 014c BA6B     		ldr	r2, [r7, #56]
 1964 014e 1A60     		str	r2, [r3]
 740:Generated_Source\PSoC4/BLE_1_hids.c ****                         ntfReqParam.value.len = attrSize;
ARM GAS  C:\Users\Jerry\AppData\Local\Temp\ccamILuW.s 			page 49


 1965              		.loc 1 740 0
 1966 0150 7B1C     		add	r3, r7, #1
 1967 0152 1B78     		ldrb	r3, [r3]
 1968 0154 9AB2     		uxth	r2, r3
 1969 0156 1423     		mov	r3, #20
 1970 0158 FB18     		add	r3, r7, r3
 1971 015a 9A80     		strh	r2, [r3, #4]
 741:Generated_Source\PSoC4/BLE_1_hids.c **** 
 742:Generated_Source\PSoC4/BLE_1_hids.c ****                         /* Send notification to client using previously filled structure */
 743:Generated_Source\PSoC4/BLE_1_hids.c ****                         apiResult = CyBle_GattsNotification(connHandle, &ntfReqParam);
 1972              		.loc 1 743 0
 1973 015c 2623     		mov	r3, #38
 1974 015e FC18     		add	r4, r7, r3
 1975 0160 3B1D     		add	r3, r7, #4
 1976 0162 1422     		mov	r2, #20
 1977 0164 BA18     		add	r2, r7, r2
 1978 0166 1868     		ldr	r0, [r3]
 1979 0168 111C     		mov	r1, r2
 1980 016a FFF7FEFF 		bl	CyBle_GattsNotification
 1981 016e 031C     		mov	r3, r0
 1982 0170 2380     		strh	r3, [r4]
 1983 0172 22E0     		b	.L103
 1984              	.L112:
 744:Generated_Source\PSoC4/BLE_1_hids.c ****                     }
 745:Generated_Source\PSoC4/BLE_1_hids.c ****                     else
 746:Generated_Source\PSoC4/BLE_1_hids.c ****                     {
 747:Generated_Source\PSoC4/BLE_1_hids.c ****                         apiResult = CYBLE_ERROR_INVALID_STATE;
 1985              		.loc 1 747 0
 1986 0174 2623     		mov	r3, #38
 1987 0176 FB18     		add	r3, r7, r3
 1988 0178 0422     		mov	r2, #4
 1989 017a FF32     		add	r2, r2, #255
 1990 017c 1A80     		strh	r2, [r3]
 1991 017e 1CE0     		b	.L103
 1992              	.L111:
 748:Generated_Source\PSoC4/BLE_1_hids.c ****                     }
 749:Generated_Source\PSoC4/BLE_1_hids.c ****                 }
 750:Generated_Source\PSoC4/BLE_1_hids.c ****                 else    /* Store data in database */
 751:Generated_Source\PSoC4/BLE_1_hids.c ****                 {
 752:Generated_Source\PSoC4/BLE_1_hids.c ****                     locHandleValuePair.attrHandle = locReport->reportHandle;
 1993              		.loc 1 752 0
 1994 0180 3B6A     		ldr	r3, [r7, #32]
 1995 0182 1A88     		ldrh	r2, [r3]
 1996 0184 0823     		mov	r3, #8
 1997 0186 FB18     		add	r3, r7, r3
 1998 0188 1A81     		strh	r2, [r3, #8]
 753:Generated_Source\PSoC4/BLE_1_hids.c ****                     locHandleValuePair.value.len = attrSize;
 1999              		.loc 1 753 0
 2000 018a 7B1C     		add	r3, r7, #1
 2001 018c 1B78     		ldrb	r3, [r3]
 2002 018e 9AB2     		uxth	r2, r3
 2003 0190 0823     		mov	r3, #8
 2004 0192 FB18     		add	r3, r7, r3
 2005 0194 9A80     		strh	r2, [r3, #4]
 754:Generated_Source\PSoC4/BLE_1_hids.c ****                     locHandleValuePair.value.val = attrValue;
 2006              		.loc 1 754 0
 2007 0196 0823     		mov	r3, #8
ARM GAS  C:\Users\Jerry\AppData\Local\Temp\ccamILuW.s 			page 50


 2008 0198 FB18     		add	r3, r7, r3
 2009 019a BA6B     		ldr	r2, [r7, #56]
 2010 019c 1A60     		str	r2, [r3]
 755:Generated_Source\PSoC4/BLE_1_hids.c ****                     if(CYBLE_GATT_ERR_NONE !=
 756:Generated_Source\PSoC4/BLE_1_hids.c ****                         CyBle_GattsWriteAttributeValue(&locHandleValuePair, 0u, NULL, CYBLE_GATT_DB
 2011              		.loc 1 756 0
 2012 019e 0823     		mov	r3, #8
 2013 01a0 FB18     		add	r3, r7, r3
 2014 01a2 181C     		mov	r0, r3
 2015 01a4 0021     		mov	r1, #0
 2016 01a6 0022     		mov	r2, #0
 2017 01a8 0023     		mov	r3, #0
 2018 01aa FFF7FEFF 		bl	CyBle_GattsWriteAttributeValue
 2019 01ae 031E     		sub	r3, r0, #0
 755:Generated_Source\PSoC4/BLE_1_hids.c ****                     if(CYBLE_GATT_ERR_NONE !=
 2020              		.loc 1 755 0
 2021 01b0 03D0     		beq	.L103
 757:Generated_Source\PSoC4/BLE_1_hids.c ****                     {
 758:Generated_Source\PSoC4/BLE_1_hids.c ****                         apiResult = CYBLE_ERROR_INVALID_PARAMETER;
 2022              		.loc 1 758 0
 2023 01b2 2623     		mov	r3, #38
 2024 01b4 FB18     		add	r3, r7, r3
 2025 01b6 0122     		mov	r2, #1
 2026 01b8 1A80     		strh	r2, [r3]
 2027              	.L103:
 759:Generated_Source\PSoC4/BLE_1_hids.c ****                     }
 760:Generated_Source\PSoC4/BLE_1_hids.c ****                 }
 761:Generated_Source\PSoC4/BLE_1_hids.c ****             }
 762:Generated_Source\PSoC4/BLE_1_hids.c ****         }
 763:Generated_Source\PSoC4/BLE_1_hids.c ****     }
 764:Generated_Source\PSoC4/BLE_1_hids.c ****     return (apiResult);
 2028              		.loc 1 764 0
 2029 01ba 2623     		mov	r3, #38
 2030 01bc FB18     		add	r3, r7, r3
 2031 01be 1B88     		ldrh	r3, [r3]
 765:Generated_Source\PSoC4/BLE_1_hids.c **** }
 2032              		.loc 1 765 0
 2033 01c0 181C     		mov	r0, r3
 2034 01c2 BD46     		mov	sp, r7
 2035 01c4 0BB0     		add	sp, sp, #44
 2036              		@ sp needed
 2037 01c6 90BD     		pop	{r4, r7, pc}
 2038              	.L116:
 2039              		.align	2
 2040              	.L115:
 2041 01c8 00000000 		.word	cyBle_hidss
 2042 01cc 00000000 		.word	cyBle_gattDB
 2043 01d0 00000000 		.word	cyBle_state
 2044              		.cfi_endproc
 2045              	.LFE9:
 2046              		.size	CyBle_HidssSendNotification, .-CyBle_HidssSendNotification
 2047              		.section	.text.CyBle_HidssOnDeviceConnected,"ax",%progbits
 2048              		.align	2
 2049              		.global	CyBle_HidssOnDeviceConnected
 2050              		.code	16
 2051              		.thumb_func
 2052              		.type	CyBle_HidssOnDeviceConnected, %function
ARM GAS  C:\Users\Jerry\AppData\Local\Temp\ccamILuW.s 			page 51


 2053              	CyBle_HidssOnDeviceConnected:
 2054              	.LFB10:
 766:Generated_Source\PSoC4/BLE_1_hids.c **** 
 767:Generated_Source\PSoC4/BLE_1_hids.c **** 
 768:Generated_Source\PSoC4/BLE_1_hids.c **** /****************************************************************************** 
 769:Generated_Source\PSoC4/BLE_1_hids.c **** * Function Name: CyBle_HidssOnDeviceConnected
 770:Generated_Source\PSoC4/BLE_1_hids.c **** ***************************************************************************//**
 771:Generated_Source\PSoC4/BLE_1_hids.c **** * 
 772:Generated_Source\PSoC4/BLE_1_hids.c **** *  Handles the connection establishment request.
 773:Generated_Source\PSoC4/BLE_1_hids.c **** * 
 774:Generated_Source\PSoC4/BLE_1_hids.c **** * \return
 775:Generated_Source\PSoC4/BLE_1_hids.c **** *  None
 776:Generated_Source\PSoC4/BLE_1_hids.c **** * 
 777:Generated_Source\PSoC4/BLE_1_hids.c **** ******************************************************************************/
 778:Generated_Source\PSoC4/BLE_1_hids.c **** void CyBle_HidssOnDeviceConnected(void)
 779:Generated_Source\PSoC4/BLE_1_hids.c **** {
 2055              		.loc 1 779 0
 2056              		.cfi_startproc
 2057 0000 80B5     		push	{r7, lr}
 2058              		.cfi_def_cfa_offset 8
 2059              		.cfi_offset 7, -8
 2060              		.cfi_offset 14, -4
 2061 0002 82B0     		sub	sp, sp, #8
 2062              		.cfi_def_cfa_offset 16
 2063 0004 00AF     		add	r7, sp, #0
 2064              		.cfi_def_cfa_register 7
 780:Generated_Source\PSoC4/BLE_1_hids.c ****     /* The Protocol Mode characteristic value shall be reset to the default value
 781:Generated_Source\PSoC4/BLE_1_hids.c ****        following a connection establishment */
 782:Generated_Source\PSoC4/BLE_1_hids.c ****     uint8 defaultProtocol = CYBLE_HIDS_PROTOCOL_DEFAULT;
 2065              		.loc 1 782 0
 2066 0006 BB1D     		add	r3, r7, #6
 2067 0008 0122     		mov	r2, #1
 2068 000a 1A70     		strb	r2, [r3]
 783:Generated_Source\PSoC4/BLE_1_hids.c ****     uint8 locServIndex = 0u;
 2069              		.loc 1 783 0
 2070 000c FB1D     		add	r3, r7, #7
 2071 000e 0022     		mov	r2, #0
 2072 0010 1A70     		strb	r2, [r3]
 2073              	.L119:
 784:Generated_Source\PSoC4/BLE_1_hids.c ****     do
 785:Generated_Source\PSoC4/BLE_1_hids.c ****     {
 786:Generated_Source\PSoC4/BLE_1_hids.c ****         if(cyBle_hidss[locServIndex].protocolModeHandle !=
 2074              		.loc 1 786 0
 2075 0012 FB1D     		add	r3, r7, #7
 2076 0014 1A78     		ldrb	r2, [r3]
 2077 0016 1549     		ldr	r1, .L120
 2078 0018 131C     		mov	r3, r2
 2079 001a 9B00     		lsl	r3, r3, #2
 2080 001c 9B18     		add	r3, r3, r2
 2081 001e DB00     		lsl	r3, r3, #3
 2082 0020 CB18     		add	r3, r1, r3
 2083 0022 5B88     		ldrh	r3, [r3, #2]
 2084 0024 002B     		cmp	r3, #0
 2085 0026 15D0     		beq	.L118
 787:Generated_Source\PSoC4/BLE_1_hids.c ****            CYBLE_GATT_INVALID_ATTR_HANDLE_VALUE)
 788:Generated_Source\PSoC4/BLE_1_hids.c ****         {
 789:Generated_Source\PSoC4/BLE_1_hids.c ****             /* Store default protocol value in database */
ARM GAS  C:\Users\Jerry\AppData\Local\Temp\ccamILuW.s 			page 52


 790:Generated_Source\PSoC4/BLE_1_hids.c ****             CYBLE_GATT_DB_ATTR_SET_GEN_VALUE(cyBle_hidss[locServIndex].protocolModeHandle,
 2086              		.loc 1 790 0
 2087 0028 FB1D     		add	r3, r7, #7
 2088 002a 1A78     		ldrb	r2, [r3]
 2089 002c 0F49     		ldr	r1, .L120
 2090 002e 131C     		mov	r3, r2
 2091 0030 9B00     		lsl	r3, r3, #2
 2092 0032 9B18     		add	r3, r3, r2
 2093 0034 DB00     		lsl	r3, r3, #3
 2094 0036 CB18     		add	r3, r1, r3
 2095 0038 5B88     		ldrh	r3, [r3, #2]
 2096 003a 5A1E     		sub	r2, r3, #1
 2097 003c 0C49     		ldr	r1, .L120+4
 2098 003e 131C     		mov	r3, r2
 2099 0040 9B00     		lsl	r3, r3, #2
 2100 0042 9B18     		add	r3, r3, r2
 2101 0044 9B00     		lsl	r3, r3, #2
 2102 0046 CB18     		add	r3, r1, r3
 2103 0048 0833     		add	r3, r3, #8
 2104 004a 9B68     		ldr	r3, [r3, #8]
 2105 004c 5B68     		ldr	r3, [r3, #4]
 2106 004e BA1D     		add	r2, r7, #6
 2107 0050 1278     		ldrb	r2, [r2]
 2108 0052 1A70     		strb	r2, [r3]
 2109              	.L118:
 791:Generated_Source\PSoC4/BLE_1_hids.c ****                                                     &defaultProtocol, sizeof(defaultProtocol));
 792:Generated_Source\PSoC4/BLE_1_hids.c ****         }
 793:Generated_Source\PSoC4/BLE_1_hids.c ****         ++locServIndex;
 2110              		.loc 1 793 0
 2111 0054 FB1D     		add	r3, r7, #7
 2112 0056 FA1D     		add	r2, r7, #7
 2113 0058 1278     		ldrb	r2, [r2]
 2114 005a 0132     		add	r2, r2, #1
 2115 005c 1A70     		strb	r2, [r3]
 794:Generated_Source\PSoC4/BLE_1_hids.c ****     }while(locServIndex < CYBLE_HIDSS_SERVICE_COUNT);
 2116              		.loc 1 794 0
 2117 005e FB1D     		add	r3, r7, #7
 2118 0060 1B78     		ldrb	r3, [r3]
 2119 0062 002B     		cmp	r3, #0
 2120 0064 D5D0     		beq	.L119
 795:Generated_Source\PSoC4/BLE_1_hids.c **** }
 2121              		.loc 1 795 0
 2122 0066 BD46     		mov	sp, r7
 2123 0068 02B0     		add	sp, sp, #8
 2124              		@ sp needed
 2125 006a 80BD     		pop	{r7, pc}
 2126              	.L121:
 2127              		.align	2
 2128              	.L120:
 2129 006c 00000000 		.word	cyBle_hidss
 2130 0070 00000000 		.word	cyBle_gattDB
 2131              		.cfi_endproc
 2132              	.LFE10:
 2133              		.size	CyBle_HidssOnDeviceConnected, .-CyBle_HidssOnDeviceConnected
 2134              		.text
 2135              	.Letext0:
 2136              		.file 2 "Generated_Source\\PSoC4\\cytypes.h"
ARM GAS  C:\Users\Jerry\AppData\Local\Temp\ccamILuW.s 			page 53


 2137              		.file 3 "Generated_Source\\PSoC4\\BLE_1_Stack.h"
 2138              		.file 4 "Generated_Source\\PSoC4\\BLE_1_StackGatt.h"
 2139              		.file 5 "Generated_Source\\PSoC4\\BLE_1_StackGattServer.h"
 2140              		.file 6 "Generated_Source\\PSoC4\\BLE_1_StackGattDb.h"
 2141              		.file 7 "Generated_Source\\PSoC4\\BLE_1.h"
 2142              		.file 8 "Generated_Source\\PSoC4\\BLE_1_dis.h"
 2143              		.file 9 "Generated_Source\\PSoC4\\BLE_1_hids.h"
 2144              		.file 10 "Generated_Source\\PSoC4\\BLE_1_eventHandler.h"
 2145              		.file 11 "Generated_Source\\PSoC4\\BLE_1_gatt.h"