ARM GAS  C:\Users\Jerry\AppData\Local\Temp\ccfYo6Xb.s 			page 1


   1              		.cpu cortex-m0
   2              		.fpu softvfp
   3              		.eabi_attribute 20, 1
   4              		.eabi_attribute 21, 1
   5              		.eabi_attribute 23, 3
   6              		.eabi_attribute 24, 1
   7              		.eabi_attribute 25, 1
   8              		.eabi_attribute 26, 1
   9              		.eabi_attribute 30, 6
  10              		.eabi_attribute 34, 0
  11              		.eabi_attribute 18, 4
  12              		.code	16
  13              		.file	"main.c"
  14              		.text
  15              	.Ltext0:
  16              		.cfi_sections	.debug_frame
  17              		.global	__aeabi_idivmod
  18              		.global	__aeabi_idiv
  19              		.section	.rodata
  20              		.align	2
  21              	.LC0:
  22 0000 30313233 		.ascii	"0123456789\000"
  22      34353637 
  22      383900
  23              		.section	.text.int_to_string,"ax",%progbits
  24              		.align	2
  25              		.global	int_to_string
  26              		.code	16
  27              		.thumb_func
  28              		.type	int_to_string, %function
  29              	int_to_string:
  30              	.LFB37:
  31              		.file 1 "main.c"
   1:main.c        **** /* ========================================
   2:main.c        ****  *
   3:main.c        ****  * Copyright YOUR COMPANY, THE YEAR
   4:main.c        ****  * All Rights Reserved
   5:main.c        ****  * UNPUBLISHED, LICENSED SOFTWARE.
   6:main.c        ****  *
   7:main.c        ****  * CONFIDENTIAL AND PROPRIETARY INFORMATION
   8:main.c        ****  * WHICH IS THE PROPERTY OF your company.
   9:main.c        ****  *
  10:main.c        ****  * ========================================
  11:main.c        **** */
  12:main.c        **** #include <project.h>
  13:main.c        **** #include <math.h>
  14:main.c        **** #include <time.h>
  15:main.c        **** #include <stdlib.h>
  16:main.c        **** 
  17:main.c        **** void int_to_string(int input, char *readto){
  32              		.loc 1 17 0
  33              		.cfi_startproc
  34 0000 90B5     		push	{r4, r7, lr}
  35              		.cfi_def_cfa_offset 12
  36              		.cfi_offset 4, -12
  37              		.cfi_offset 7, -8
  38              		.cfi_offset 14, -4
ARM GAS  C:\Users\Jerry\AppData\Local\Temp\ccfYo6Xb.s 			page 2


  39 0002 87B0     		sub	sp, sp, #28
  40              		.cfi_def_cfa_offset 40
  41 0004 00AF     		add	r7, sp, #0
  42              		.cfi_def_cfa_register 7
  43 0006 7860     		str	r0, [r7, #4]
  44 0008 3960     		str	r1, [r7]
  18:main.c        ****     char const digits[] = "0123456789";
  45              		.loc 1 18 0
  46 000a 0823     		mov	r3, #8
  47 000c FB18     		add	r3, r7, r3
  48 000e 1B4A     		ldr	r2, .L7
  49 0010 03CA     		ldmia	r2!, {r0, r1}
  50 0012 03C3     		stmia	r3!, {r0, r1}
  51 0014 1188     		ldrh	r1, [r2]
  52 0016 1980     		strh	r1, [r3]
  53 0018 9278     		ldrb	r2, [r2, #2]
  54 001a 9A70     		strb	r2, [r3, #2]
  19:main.c        ****     int c1 = 0;
  55              		.loc 1 19 0
  56 001c 0023     		mov	r3, #0
  57 001e 7B61     		str	r3, [r7, #20]
  20:main.c        ****     while(c1 < 9){
  58              		.loc 1 20 0
  59 0020 07E0     		b	.L2
  60              	.L3:
  21:main.c        ****         (*(readto+c1)) = ' ';
  61              		.loc 1 21 0
  62 0022 7B69     		ldr	r3, [r7, #20]
  63 0024 3A68     		ldr	r2, [r7]
  64 0026 D318     		add	r3, r2, r3
  65 0028 2022     		mov	r2, #32
  66 002a 1A70     		strb	r2, [r3]
  22:main.c        ****         c1 += 1;
  67              		.loc 1 22 0
  68 002c 7B69     		ldr	r3, [r7, #20]
  69 002e 0133     		add	r3, r3, #1
  70 0030 7B61     		str	r3, [r7, #20]
  71              	.L2:
  20:main.c        ****     while(c1 < 9){
  72              		.loc 1 20 0
  73 0032 7B69     		ldr	r3, [r7, #20]
  74 0034 082B     		cmp	r3, #8
  75 0036 F4DD     		ble	.L3
  23:main.c        ****     }
  24:main.c        ****     while(input > 0 && c1 > 0){
  76              		.loc 1 24 0
  77 0038 17E0     		b	.L4
  78              	.L6:
  25:main.c        ****         (*(readto+c1)) = digits[input%10];
  79              		.loc 1 25 0
  80 003a 7B69     		ldr	r3, [r7, #20]
  81 003c 3A68     		ldr	r2, [r7]
  82 003e D418     		add	r4, r2, r3
  83 0040 7B68     		ldr	r3, [r7, #4]
  84 0042 181C     		mov	r0, r3
  85 0044 0A21     		mov	r1, #10
  86 0046 FFF7FEFF 		bl	__aeabi_idivmod
ARM GAS  C:\Users\Jerry\AppData\Local\Temp\ccfYo6Xb.s 			page 3


  87 004a 0B1C     		mov	r3, r1
  88 004c 1A1C     		mov	r2, r3
  89 004e 0823     		mov	r3, #8
  90 0050 FB18     		add	r3, r7, r3
  91 0052 9B5C     		ldrb	r3, [r3, r2]
  92 0054 2370     		strb	r3, [r4]
  26:main.c        ****         input = input/10;
  93              		.loc 1 26 0
  94 0056 7B68     		ldr	r3, [r7, #4]
  95 0058 181C     		mov	r0, r3
  96 005a 0A21     		mov	r1, #10
  97 005c FFF7FEFF 		bl	__aeabi_idiv
  98 0060 031C     		mov	r3, r0
  99 0062 7B60     		str	r3, [r7, #4]
  27:main.c        ****         c1 -= 1;
 100              		.loc 1 27 0
 101 0064 7B69     		ldr	r3, [r7, #20]
 102 0066 013B     		sub	r3, r3, #1
 103 0068 7B61     		str	r3, [r7, #20]
 104              	.L4:
  24:main.c        ****         (*(readto+c1)) = digits[input%10];
 105              		.loc 1 24 0
 106 006a 7B68     		ldr	r3, [r7, #4]
 107 006c 002B     		cmp	r3, #0
 108 006e 02DD     		ble	.L1
  24:main.c        ****         (*(readto+c1)) = digits[input%10];
 109              		.loc 1 24 0 is_stmt 0 discriminator 1
 110 0070 7B69     		ldr	r3, [r7, #20]
 111 0072 002B     		cmp	r3, #0
 112 0074 E1DC     		bgt	.L6
 113              	.L1:
  28:main.c        ****     }
  29:main.c        **** }
 114              		.loc 1 29 0 is_stmt 1
 115 0076 BD46     		mov	sp, r7
 116 0078 07B0     		add	sp, sp, #28
 117              		@ sp needed
 118 007a 90BD     		pop	{r4, r7, pc}
 119              	.L8:
 120              		.align	2
 121              	.L7:
 122 007c 00000000 		.word	.LC0
 123              		.cfi_endproc
 124              	.LFE37:
 125              		.size	int_to_string, .-int_to_string
 126              		.global	__aeabi_dmul
 127              		.global	__aeabi_d2iz
 128              		.section	.text.float_to_string,"ax",%progbits
 129              		.align	2
 130              		.global	float_to_string
 131              		.code	16
 132              		.thumb_func
 133              		.type	float_to_string, %function
 134              	float_to_string:
 135              	.LFB38:
  30:main.c        **** void float_to_string(double input, char *readto){
 136              		.loc 1 30 0
ARM GAS  C:\Users\Jerry\AppData\Local\Temp\ccfYo6Xb.s 			page 4


 137              		.cfi_startproc
 138 0000 90B5     		push	{r4, r7, lr}
 139              		.cfi_def_cfa_offset 12
 140              		.cfi_offset 4, -12
 141              		.cfi_offset 7, -8
 142              		.cfi_offset 14, -4
 143 0002 91B0     		sub	sp, sp, #68
 144              		.cfi_def_cfa_offset 80
 145 0004 00AF     		add	r7, sp, #0
 146              		.cfi_def_cfa_register 7
 147 0006 B860     		str	r0, [r7, #8]
 148 0008 F960     		str	r1, [r7, #12]
 149 000a 7A60     		str	r2, [r7, #4]
  31:main.c        ****     char const digits[] = "0123456789";
 150              		.loc 1 31 0
 151 000c 1C23     		mov	r3, #28
 152 000e FB18     		add	r3, r7, r3
 153 0010 3F4A     		ldr	r2, .L17
 154 0012 03CA     		ldmia	r2!, {r0, r1}
 155 0014 03C3     		stmia	r3!, {r0, r1}
 156 0016 1188     		ldrh	r1, [r2]
 157 0018 1980     		strh	r1, [r3]
 158 001a 9278     		ldrb	r2, [r2, #2]
 159 001c 9A70     		strb	r2, [r3, #2]
  32:main.c        ****     int c1 = 0;
 160              		.loc 1 32 0
 161 001e 0023     		mov	r3, #0
 162 0020 FB63     		str	r3, [r7, #60]
  33:main.c        ****     while(c1 < 9){
 163              		.loc 1 33 0
 164 0022 07E0     		b	.L10
 165              	.L11:
  34:main.c        ****         (*(readto+c1)) = ' ';
 166              		.loc 1 34 0
 167 0024 FB6B     		ldr	r3, [r7, #60]
 168 0026 7A68     		ldr	r2, [r7, #4]
 169 0028 D318     		add	r3, r2, r3
 170 002a 2022     		mov	r2, #32
 171 002c 1A70     		strb	r2, [r3]
  35:main.c        ****         c1 += 1;
 172              		.loc 1 35 0
 173 002e FB6B     		ldr	r3, [r7, #60]
 174 0030 0133     		add	r3, r3, #1
 175 0032 FB63     		str	r3, [r7, #60]
 176              	.L10:
  33:main.c        ****     while(c1 < 9){
 177              		.loc 1 33 0
 178 0034 FB6B     		ldr	r3, [r7, #60]
 179 0036 082B     		cmp	r3, #8
 180 0038 F4DD     		ble	.L11
  36:main.c        ****     }
  37:main.c        ****     double fractpart, intpart;
  38:main.c        ****     fractpart = modf(input, &intpart);
 181              		.loc 1 38 0
 182 003a BB68     		ldr	r3, [r7, #8]
 183 003c FC68     		ldr	r4, [r7, #12]
 184 003e 1022     		mov	r2, #16
ARM GAS  C:\Users\Jerry\AppData\Local\Temp\ccfYo6Xb.s 			page 5


 185 0040 BA18     		add	r2, r7, r2
 186 0042 181C     		mov	r0, r3
 187 0044 211C     		mov	r1, r4
 188 0046 FFF7FEFF 		bl	modf
 189 004a 031C     		mov	r3, r0
 190 004c 0C1C     		mov	r4, r1
 191 004e BB62     		str	r3, [r7, #40]
 192 0050 FC62     		str	r4, [r7, #44]
  39:main.c        ****     fractpart *= 10 * 10 * 10 * 10 * 10;
 193              		.loc 1 39 0
 194 0052 B86A     		ldr	r0, [r7, #40]
 195 0054 F96A     		ldr	r1, [r7, #44]
 196 0056 0022     		mov	r2, #0
 197 0058 2E4B     		ldr	r3, .L17+4
 198 005a FFF7FEFF 		bl	__aeabi_dmul
 199 005e 031C     		mov	r3, r0
 200 0060 0C1C     		mov	r4, r1
 201 0062 BB62     		str	r3, [r7, #40]
 202 0064 FC62     		str	r4, [r7, #44]
  40:main.c        ****     int frac_rep = (int)fractpart;
 203              		.loc 1 40 0
 204 0066 B86A     		ldr	r0, [r7, #40]
 205 0068 F96A     		ldr	r1, [r7, #44]
 206 006a FFF7FEFF 		bl	__aeabi_d2iz
 207 006e 031C     		mov	r3, r0
 208 0070 BB63     		str	r3, [r7, #56]
  41:main.c        ****     int int_rep = (int)intpart;
 209              		.loc 1 41 0
 210 0072 3B69     		ldr	r3, [r7, #16]
 211 0074 7C69     		ldr	r4, [r7, #20]
 212 0076 181C     		mov	r0, r3
 213 0078 211C     		mov	r1, r4
 214 007a FFF7FEFF 		bl	__aeabi_d2iz
 215 007e 031C     		mov	r3, r0
 216 0080 7B63     		str	r3, [r7, #52]
  42:main.c        ****     while(c1 > 4){
 217              		.loc 1 42 0
 218 0082 17E0     		b	.L12
 219              	.L13:
  43:main.c        ****         (*(readto+c1)) = digits[frac_rep%10];
 220              		.loc 1 43 0
 221 0084 FB6B     		ldr	r3, [r7, #60]
 222 0086 7A68     		ldr	r2, [r7, #4]
 223 0088 D418     		add	r4, r2, r3
 224 008a BB6B     		ldr	r3, [r7, #56]
 225 008c 181C     		mov	r0, r3
 226 008e 0A21     		mov	r1, #10
 227 0090 FFF7FEFF 		bl	__aeabi_idivmod
 228 0094 0B1C     		mov	r3, r1
 229 0096 1A1C     		mov	r2, r3
 230 0098 1C23     		mov	r3, #28
 231 009a FB18     		add	r3, r7, r3
 232 009c 9B5C     		ldrb	r3, [r3, r2]
 233 009e 2370     		strb	r3, [r4]
  44:main.c        ****         frac_rep = frac_rep/10;
 234              		.loc 1 44 0
 235 00a0 BB6B     		ldr	r3, [r7, #56]
ARM GAS  C:\Users\Jerry\AppData\Local\Temp\ccfYo6Xb.s 			page 6


 236 00a2 181C     		mov	r0, r3
 237 00a4 0A21     		mov	r1, #10
 238 00a6 FFF7FEFF 		bl	__aeabi_idiv
 239 00aa 031C     		mov	r3, r0
 240 00ac BB63     		str	r3, [r7, #56]
  45:main.c        ****         c1-=1;
 241              		.loc 1 45 0
 242 00ae FB6B     		ldr	r3, [r7, #60]
 243 00b0 013B     		sub	r3, r3, #1
 244 00b2 FB63     		str	r3, [r7, #60]
 245              	.L12:
  42:main.c        ****         (*(readto+c1)) = digits[frac_rep%10];
 246              		.loc 1 42 0
 247 00b4 FB6B     		ldr	r3, [r7, #60]
 248 00b6 042B     		cmp	r3, #4
 249 00b8 E4DC     		bgt	.L13
  46:main.c        ****     }
  47:main.c        ****     (*(readto+c1)) = '.';
 250              		.loc 1 47 0
 251 00ba FB6B     		ldr	r3, [r7, #60]
 252 00bc 7A68     		ldr	r2, [r7, #4]
 253 00be D318     		add	r3, r2, r3
 254 00c0 2E22     		mov	r2, #46
 255 00c2 1A70     		strb	r2, [r3]
  48:main.c        ****     c1-=1;
 256              		.loc 1 48 0
 257 00c4 FB6B     		ldr	r3, [r7, #60]
 258 00c6 013B     		sub	r3, r3, #1
 259 00c8 FB63     		str	r3, [r7, #60]
  49:main.c        ****     while(int_rep > 0 && c1 > 1){
 260              		.loc 1 49 0
 261 00ca 17E0     		b	.L14
 262              	.L16:
  50:main.c        ****         (*(readto+c1)) = digits[int_rep%10];
 263              		.loc 1 50 0
 264 00cc FB6B     		ldr	r3, [r7, #60]
 265 00ce 7A68     		ldr	r2, [r7, #4]
 266 00d0 D418     		add	r4, r2, r3
 267 00d2 7B6B     		ldr	r3, [r7, #52]
 268 00d4 181C     		mov	r0, r3
 269 00d6 0A21     		mov	r1, #10
 270 00d8 FFF7FEFF 		bl	__aeabi_idivmod
 271 00dc 0B1C     		mov	r3, r1
 272 00de 1A1C     		mov	r2, r3
 273 00e0 1C23     		mov	r3, #28
 274 00e2 FB18     		add	r3, r7, r3
 275 00e4 9B5C     		ldrb	r3, [r3, r2]
 276 00e6 2370     		strb	r3, [r4]
  51:main.c        ****         int_rep = int_rep/10;
 277              		.loc 1 51 0
 278 00e8 7B6B     		ldr	r3, [r7, #52]
 279 00ea 181C     		mov	r0, r3
 280 00ec 0A21     		mov	r1, #10
 281 00ee FFF7FEFF 		bl	__aeabi_idiv
 282 00f2 031C     		mov	r3, r0
 283 00f4 7B63     		str	r3, [r7, #52]
  52:main.c        ****         c1-=1;
ARM GAS  C:\Users\Jerry\AppData\Local\Temp\ccfYo6Xb.s 			page 7


 284              		.loc 1 52 0
 285 00f6 FB6B     		ldr	r3, [r7, #60]
 286 00f8 013B     		sub	r3, r3, #1
 287 00fa FB63     		str	r3, [r7, #60]
 288              	.L14:
  49:main.c        ****         (*(readto+c1)) = digits[int_rep%10];
 289              		.loc 1 49 0
 290 00fc 7B6B     		ldr	r3, [r7, #52]
 291 00fe 002B     		cmp	r3, #0
 292 0100 02DD     		ble	.L9
  49:main.c        ****         (*(readto+c1)) = digits[int_rep%10];
 293              		.loc 1 49 0 is_stmt 0 discriminator 1
 294 0102 FB6B     		ldr	r3, [r7, #60]
 295 0104 012B     		cmp	r3, #1
 296 0106 E1DC     		bgt	.L16
 297              	.L9:
  53:main.c        ****     }
  54:main.c        **** }
 298              		.loc 1 54 0 is_stmt 1
 299 0108 BD46     		mov	sp, r7
 300 010a 11B0     		add	sp, sp, #68
 301              		@ sp needed
 302 010c 90BD     		pop	{r4, r7, pc}
 303              	.L18:
 304 010e C046     		.align	2
 305              	.L17:
 306 0110 00000000 		.word	.LC0
 307 0114 006AF840 		.word	1090021888
 308              		.cfi_endproc
 309              	.LFE38:
 310              		.size	float_to_string, .-float_to_string
 311              		.section	.rodata
 312 000b 00       		.align	2
 313              	.LC3:
 314 000c 44656C61 		.ascii	"Delay ms  | Calculated second value\000"
 314      79206D73 
 314      20207C20 
 314      43616C63 
 314      756C6174 
 315              		.global	__aeabi_i2d
 316              		.global	__aeabi_dadd
 317              		.global	__aeabi_ddiv
 318              		.section	.text.main,"ax",%progbits
 319              		.align	2
 320              		.global	main
 321              		.code	16
 322              		.thumb_func
 323              		.type	main, %function
 324              	main:
 325              	.LFB39:
  55:main.c        **** 
  56:main.c        **** int main()
  57:main.c        **** {
 326              		.loc 1 57 0
 327              		.cfi_startproc
 328 0000 F0B5     		push	{r4, r5, r6, r7, lr}
 329              		.cfi_def_cfa_offset 20
ARM GAS  C:\Users\Jerry\AppData\Local\Temp\ccfYo6Xb.s 			page 8


 330              		.cfi_offset 4, -20
 331              		.cfi_offset 5, -16
 332              		.cfi_offset 6, -12
 333              		.cfi_offset 7, -8
 334              		.cfi_offset 14, -4
 335 0002 8FB0     		sub	sp, sp, #60
 336              		.cfi_def_cfa_offset 80
 337 0004 00AF     		add	r7, sp, #0
 338              		.cfi_def_cfa_register 7
  58:main.c        ****     /* Place your initialization/startup code here (e.g. MyInst_Start()) */
  59:main.c        ****     TCPWM_1_Start();
 339              		.loc 1 59 0
 340 0006 FFF7FEFF 		bl	TCPWM_1_Start
  60:main.c        ****     SCB_1_Start();
 341              		.loc 1 60 0
 342 000a FFF7FEFF 		bl	SCB_1_Start
  61:main.c        ****     /* CyGlobalIntEnable; */ /* Uncomment this line to enable global interrupts. */
  62:main.c        **** 
  63:main.c        ****     //rand for testing only
  64:main.c        ****     srand(time(NULL));
 343              		.loc 1 64 0
 344 000e 0020     		mov	r0, #0
 345 0010 FFF7FEFF 		bl	time
 346 0014 031C     		mov	r3, r0
 347 0016 181C     		mov	r0, r3
 348 0018 FFF7FEFF 		bl	srand
 349              	.LBB2:
  65:main.c        ****     for(;;)
  66:main.c        ****     {
  67:main.c        ****         int read_period = TCPWM_1_ReadPeriod();
 350              		.loc 1 67 0
 351 001c FFF7FEFF 		bl	TCPWM_1_ReadPeriod
 352 0020 031C     		mov	r3, r0
 353 0022 7B62     		str	r3, [r7, #36]
  68:main.c        ****         int read_capture = TCPWM_1_ReadCapture();
 354              		.loc 1 68 0
 355 0024 FFF7FEFF 		bl	TCPWM_1_ReadCapture
 356 0028 031C     		mov	r3, r0
 357 002a 3B62     		str	r3, [r7, #32]
  69:main.c        ****         char print_array[10];
  70:main.c        ****         //SCB_1_UartPutString("Period   |");
  71:main.c        ****         //int_to_string(read_period, print_array);
  72:main.c        ****         //SCB_1_UartPutString(print_array);
  73:main.c        ****         //SCB_1_UartPutChar('\n');
  74:main.c        ****         //SCB_1_UartPutString("Capture  |");
  75:main.c        ****         //int_to_string(read_capture, print_array);
  76:main.c        ****         //SCB_1_UartPutString(print_array);
  77:main.c        ****         SCB_1_UartPutChar('\n');
 358              		.loc 1 77 0
 359 002c 0A20     		mov	r0, #10
 360 002e FFF7FEFF 		bl	SCB_1_SpiUartWriteTxData
  78:main.c        ****         
  79:main.c        ****         //reading counters test
  80:main.c        ****         SCB_1_UartPutString("Delay ms  | Calculated second value");
 361              		.loc 1 80 0
 362 0032 4D4B     		ldr	r3, .L25
 363 0034 181C     		mov	r0, r3
ARM GAS  C:\Users\Jerry\AppData\Local\Temp\ccfYo6Xb.s 			page 9


 364 0036 FFF7FEFF 		bl	SCB_1_UartPutString
  81:main.c        ****         int read_counter = TCPWM_1_ReadCounter();
 365              		.loc 1 81 0
 366 003a FFF7FEFF 		bl	TCPWM_1_ReadCounter
 367 003e 031C     		mov	r3, r0
 368 0040 7B63     		str	r3, [r7, #52]
  82:main.c        ****         //int_to_string(read_counter, print_array);
  83:main.c        ****         //SCB_1_UartPutString(print_array);
  84:main.c        ****         SCB_1_UartPutChar('\n');
 369              		.loc 1 84 0
 370 0042 0A20     		mov	r0, #10
 371 0044 FFF7FEFF 		bl	SCB_1_SpiUartWriteTxData
  85:main.c        ****         int c1 = 0;
 372              		.loc 1 85 0
 373 0048 0023     		mov	r3, #0
 374 004a 3B63     		str	r3, [r7, #48]
  86:main.c        ****         int old_counter = 0;
 375              		.loc 1 86 0
 376 004c 0023     		mov	r3, #0
 377 004e FB61     		str	r3, [r7, #28]
  87:main.c        ****         char random_time[10];
  88:main.c        ****         while(c1<1000){
 378              		.loc 1 88 0
 379 0050 7BE0     		b	.L20
 380              	.L23:
 381              	.LBB3:
  89:main.c        ****             int rand_delay = rand() % 5000;
 382              		.loc 1 89 0
 383 0052 FFF7FEFF 		bl	rand
 384 0056 031C     		mov	r3, r0
 385 0058 181C     		mov	r0, r3
 386 005a 4449     		ldr	r1, .L25+4
 387 005c FFF7FEFF 		bl	__aeabi_idivmod
 388 0060 0B1C     		mov	r3, r1
 389 0062 BB61     		str	r3, [r7, #24]
  90:main.c        ****             old_counter = read_counter;
 390              		.loc 1 90 0
 391 0064 7B6B     		ldr	r3, [r7, #52]
 392 0066 FB61     		str	r3, [r7, #28]
  91:main.c        ****             read_counter = TCPWM_1_ReadCounter();
 393              		.loc 1 91 0
 394 0068 FFF7FEFF 		bl	TCPWM_1_ReadCounter
 395 006c 031C     		mov	r3, r0
 396 006e 7B63     		str	r3, [r7, #52]
  92:main.c        ****             double value;
  93:main.c        ****             if(read_counter > old_counter){
 397              		.loc 1 93 0
 398 0070 7A6B     		ldr	r2, [r7, #52]
 399 0072 FB69     		ldr	r3, [r7, #28]
 400 0074 9A42     		cmp	r2, r3
 401 0076 21DD     		ble	.L21
  94:main.c        ****                 value = (read_counter - old_counter) * 2.0 / read_period;
 402              		.loc 1 94 0
 403 0078 7A6B     		ldr	r2, [r7, #52]
 404 007a FB69     		ldr	r3, [r7, #28]
 405 007c D31A     		sub	r3, r2, r3
 406 007e 181C     		mov	r0, r3
ARM GAS  C:\Users\Jerry\AppData\Local\Temp\ccfYo6Xb.s 			page 10


 407 0080 FFF7FEFF 		bl	__aeabi_i2d
 408 0084 031C     		mov	r3, r0
 409 0086 0C1C     		mov	r4, r1
 410 0088 181C     		mov	r0, r3
 411 008a 211C     		mov	r1, r4
 412 008c 1A1C     		mov	r2, r3
 413 008e 231C     		mov	r3, r4
 414 0090 FFF7FEFF 		bl	__aeabi_dadd
 415 0094 031C     		mov	r3, r0
 416 0096 0C1C     		mov	r4, r1
 417 0098 1D1C     		mov	r5, r3
 418 009a 261C     		mov	r6, r4
 419 009c 786A     		ldr	r0, [r7, #36]
 420 009e FFF7FEFF 		bl	__aeabi_i2d
 421 00a2 031C     		mov	r3, r0
 422 00a4 0C1C     		mov	r4, r1
 423 00a6 281C     		mov	r0, r5
 424 00a8 311C     		mov	r1, r6
 425 00aa 1A1C     		mov	r2, r3
 426 00ac 231C     		mov	r3, r4
 427 00ae FFF7FEFF 		bl	__aeabi_ddiv
 428 00b2 031C     		mov	r3, r0
 429 00b4 0C1C     		mov	r4, r1
 430 00b6 BB62     		str	r3, [r7, #40]
 431 00b8 FC62     		str	r4, [r7, #44]
 432 00ba 22E0     		b	.L22
 433              	.L21:
  95:main.c        ****             }
  96:main.c        ****             //case where the counter resets because it is over period count
  97:main.c        ****             else{
  98:main.c        ****                 value = (read_period - old_counter + read_counter) * 2.0 / read_period;
 434              		.loc 1 98 0
 435 00bc 7A6A     		ldr	r2, [r7, #36]
 436 00be FB69     		ldr	r3, [r7, #28]
 437 00c0 D21A     		sub	r2, r2, r3
 438 00c2 7B6B     		ldr	r3, [r7, #52]
 439 00c4 D318     		add	r3, r2, r3
 440 00c6 181C     		mov	r0, r3
 441 00c8 FFF7FEFF 		bl	__aeabi_i2d
 442 00cc 031C     		mov	r3, r0
 443 00ce 0C1C     		mov	r4, r1
 444 00d0 181C     		mov	r0, r3
 445 00d2 211C     		mov	r1, r4
 446 00d4 1A1C     		mov	r2, r3
 447 00d6 231C     		mov	r3, r4
 448 00d8 FFF7FEFF 		bl	__aeabi_dadd
 449 00dc 031C     		mov	r3, r0
 450 00de 0C1C     		mov	r4, r1
 451 00e0 1D1C     		mov	r5, r3
 452 00e2 261C     		mov	r6, r4
 453 00e4 786A     		ldr	r0, [r7, #36]
 454 00e6 FFF7FEFF 		bl	__aeabi_i2d
 455 00ea 031C     		mov	r3, r0
 456 00ec 0C1C     		mov	r4, r1
 457 00ee 281C     		mov	r0, r5
 458 00f0 311C     		mov	r1, r6
 459 00f2 1A1C     		mov	r2, r3
ARM GAS  C:\Users\Jerry\AppData\Local\Temp\ccfYo6Xb.s 			page 11


 460 00f4 231C     		mov	r3, r4
 461 00f6 FFF7FEFF 		bl	__aeabi_ddiv
 462 00fa 031C     		mov	r3, r0
 463 00fc 0C1C     		mov	r4, r1
 464 00fe BB62     		str	r3, [r7, #40]
 465 0100 FC62     		str	r4, [r7, #44]
 466              	.L22:
  99:main.c        ****             }
 100:main.c        ****             float_to_string(value,print_array);
 467              		.loc 1 100 0
 468 0102 BB6A     		ldr	r3, [r7, #40]
 469 0104 FC6A     		ldr	r4, [r7, #44]
 470 0106 0C22     		mov	r2, #12
 471 0108 BA18     		add	r2, r7, r2
 472 010a 181C     		mov	r0, r3
 473 010c 211C     		mov	r1, r4
 474 010e FFF7FEFF 		bl	float_to_string
 101:main.c        ****             SCB_1_UartPutString(print_array);
 475              		.loc 1 101 0
 476 0112 0C23     		mov	r3, #12
 477 0114 FB18     		add	r3, r7, r3
 478 0116 181C     		mov	r0, r3
 479 0118 FFF7FEFF 		bl	SCB_1_UartPutString
 102:main.c        ****             SCB_1_UartPutChar('\n');
 480              		.loc 1 102 0
 481 011c 0A20     		mov	r0, #10
 482 011e FFF7FEFF 		bl	SCB_1_SpiUartWriteTxData
 103:main.c        ****             int_to_string(rand_delay,random_time);
 483              		.loc 1 103 0
 484 0122 BA69     		ldr	r2, [r7, #24]
 485 0124 3B1C     		mov	r3, r7
 486 0126 101C     		mov	r0, r2
 487 0128 191C     		mov	r1, r3
 488 012a FFF7FEFF 		bl	int_to_string
 104:main.c        ****             SCB_1_UartPutString(random_time);
 489              		.loc 1 104 0
 490 012e 3B1C     		mov	r3, r7
 491 0130 181C     		mov	r0, r3
 492 0132 FFF7FEFF 		bl	SCB_1_UartPutString
 105:main.c        ****             SCB_1_UartPutChar('|');
 493              		.loc 1 105 0
 494 0136 7C20     		mov	r0, #124
 495 0138 FFF7FEFF 		bl	SCB_1_SpiUartWriteTxData
 106:main.c        ****             CyDelay(rand_delay);
 496              		.loc 1 106 0
 497 013c BB69     		ldr	r3, [r7, #24]
 498 013e 181C     		mov	r0, r3
 499 0140 FFF7FEFF 		bl	CyDelay
 107:main.c        ****             c1++;
 500              		.loc 1 107 0
 501 0144 3B6B     		ldr	r3, [r7, #48]
 502 0146 0133     		add	r3, r3, #1
 503 0148 3B63     		str	r3, [r7, #48]
 504              	.L20:
 505              	.LBE3:
  88:main.c        ****             int rand_delay = rand() % 5000;
 506              		.loc 1 88 0
ARM GAS  C:\Users\Jerry\AppData\Local\Temp\ccfYo6Xb.s 			page 12


 507 014a 3B6B     		ldr	r3, [r7, #48]
 508 014c 084A     		ldr	r2, .L25+8
 509 014e 9342     		cmp	r3, r2
 510 0150 00DC     		bgt	.LCB414
 511 0152 7EE7     		b	.L23	@long jump
 512              	.LCB414:
 108:main.c        ****         }
 109:main.c        ****         break;
 513              		.loc 1 109 0
 514 0154 C046     		mov	r8, r8
 515              	.LBE2:
 110:main.c        ****     }
 111:main.c        ****     SCB_1_UartPutChar('~');
 516              		.loc 1 111 0
 517 0156 7E20     		mov	r0, #126
 518 0158 FFF7FEFF 		bl	SCB_1_SpiUartWriteTxData
 112:main.c        ****     return 0;
 519              		.loc 1 112 0
 520 015c 0023     		mov	r3, #0
 113:main.c        **** }
 521              		.loc 1 113 0
 522 015e 181C     		mov	r0, r3
 523 0160 BD46     		mov	sp, r7
 524 0162 0FB0     		add	sp, sp, #60
 525              		@ sp needed
 526 0164 F0BD     		pop	{r4, r5, r6, r7, pc}
 527              	.L26:
 528 0166 C046     		.align	2
 529              	.L25:
 530 0168 0C000000 		.word	.LC3
 531 016c 88130000 		.word	5000
 532 0170 E7030000 		.word	999
 533              		.cfi_endproc
 534              	.LFE39:
 535              		.size	main, .-main
 536              		.text
 537              	.Letext0:
 538              		.file 2 "Generated_Source\\PSoC4/cytypes.h"